---
triple:          'arm64-apple-darwin'
binary-path:     '/Users/mikef/Documents/PlatformIO/Projects/macos-dev/testSynth'
relocations:
  - { offsetInCU: 0x3F, offset: 0x3F, size: 0x8, addend: 0x0, symName: _timer1, symObjAddr: 0x11FC80, symBinAddr: 0x100028000, symSize: 0x0 }
  - { offsetInCU: 0x147, offset: 0x147, size: 0x8, addend: 0x0, symName: _timer2, symObjAddr: 0x11FC8C, symBinAddr: 0x10002800C, symSize: 0x0 }
  - { offsetInCU: 0x15C, offset: 0x15C, size: 0x8, addend: 0x0, symName: _timer3, symObjAddr: 0x11FC98, symBinAddr: 0x100028018, symSize: 0x0 }
  - { offsetInCU: 0x184, offset: 0x184, size: 0x8, addend: 0x0, symName: __ZL11pskToString, symObjAddr: 0x11FD78, symBinAddr: 0x1000280F8, symSize: 0x0 }
  - { offsetInCU: 0xDC07, offset: 0xDC07, size: 0x8, addend: 0x0, symName: __ZNSt3__1L19piecewise_constructE, symObjAddr: 0x20B97, symBinAddr: 0x100022524, symSize: 0x0 }
  - { offsetInCU: 0x165DC, offset: 0x165DC, size: 0x8, addend: 0x0, symName: __ZNSt3__16chrono15time_point_castB7v160006INS0_8durationIxNS_5ratioILl1ELl1000EEEEENS0_12system_clockENS2_IxNS3_ILl1ELl1000000EEEEEEENS0_10time_pointIT0_T_EERKNS9_ISA_T1_EE, symObjAddr: 0x1F0, symBinAddr: 0x1000018D8, symSize: 0x48 }
  - { offsetInCU: 0x16623, offset: 0x16623, size: 0x8, addend: 0x0, symName: __ZNSt3__16chrono13duration_castB7v160006INS0_8durationIxNS_5ratioILl1ELl1000EEEEExNS3_ILl1ELl1000000EEEEENS_9enable_ifIXsr13__is_durationIT_EE5valueES8_E4typeERKNS2_IT0_T1_EE, symObjAddr: 0x3414, symBinAddr: 0x100004AFC, symSize: 0x30 }
  - { offsetInCU: 0x1666A, offset: 0x1666A, size: 0x8, addend: 0x0, symName: __ZNSt3__16chronogtB7v160006IxNS_5ratioILl1ELl1000EEExS3_EEbRKNS0_8durationIT_T0_EERKNS4_IT1_T2_EE, symObjAddr: 0x15F78, symBinAddr: 0x100017660, symSize: 0x30 }
  - { offsetInCU: 0x166CB, offset: 0x166CB, size: 0x8, addend: 0x0, symName: __ZNSt3__16chronoltB7v160006IxNS_5ratioILl1ELl1000EEEeNS2_ILl1ELl1EEEEEbRKNS0_8durationIT_T0_EERKNS5_IT1_T2_EE, symObjAddr: 0x15FE4, symBinAddr: 0x1000176CC, symSize: 0x34 }
  - { offsetInCU: 0x1672C, offset: 0x1672C, size: 0x8, addend: 0x0, symName: __ZNSt3__16chrono13duration_castB7v160006INS0_8durationIxNS_5ratioILl1ELl1000000000EEEEExNS3_ILl1ELl1000EEEEENS_9enable_ifIXsr13__is_durationIT_EE5valueES8_E4typeERKNS2_IT0_T1_EE, symObjAddr: 0x16018, symBinAddr: 0x100017700, symSize: 0x30 }
  - { offsetInCU: 0x16773, offset: 0x16773, size: 0x8, addend: 0x0, symName: __ZNSt3__16chronoltB7v160006IxNS_5ratioILl1ELl1000000000EEExNS2_ILl1ELl1000EEEEEbRKNS0_8durationIT_T0_EERKNS5_IT1_T2_EE, symObjAddr: 0x16048, symBinAddr: 0x100017730, symSize: 0x34 }
  - { offsetInCU: 0x167D4, offset: 0x167D4, size: 0x8, addend: 0x0, symName: __ZNSt3__16chronoltB7v160006IxNS_5ratioILl1ELl1000EEExS3_EEbRKNS0_8durationIT_T0_EERKNS4_IT1_T2_EE, symObjAddr: 0x160D8, symBinAddr: 0x1000177C0, symSize: 0x34 }
  - { offsetInCU: 0x168B2, offset: 0x168B2, size: 0x8, addend: 0x0, symName: __ZNSt3__16chrono13duration_castB7v160006INS0_8durationIeNS_5ratioILl1ELl1000EEEEExS4_EENS_9enable_ifIXsr13__is_durationIT_EE5valueES7_E4typeERKNS2_IT0_T1_EE, symObjAddr: 0x162B0, symBinAddr: 0x100017998, symSize: 0x30 }
  - { offsetInCU: 0x16944, offset: 0x16944, size: 0x8, addend: 0x0, symName: __ZNSt3__16chrono13duration_castB7v160006INS0_8durationIeNS_5ratioILl1ELl1000EEEEEeNS3_ILl1ELl1EEEEENS_9enable_ifIXsr13__is_durationIT_EE5valueES8_E4typeERKNS2_IT0_T1_EE, symObjAddr: 0x163D0, symBinAddr: 0x100017AB8, symSize: 0x30 }
  - { offsetInCU: 0x16E56, offset: 0x16E56, size: 0x8, addend: 0x0, symName: __ZNSt3__124__put_character_sequenceB7v160006IcNS_11char_traitsIcEEEERNS_13basic_ostreamIT_T0_EES7_PKS4_m, symObjAddr: 0x8F70, symBinAddr: 0x10000A658, symSize: 0x1EC }
  - { offsetInCU: 0x1D472, offset: 0x1D472, size: 0x8, addend: 0x0, symName: __ZNSt3__17advanceB7v160006IP9JSONValuemmvEEvRT_T0_, symObjAddr: 0xD898, symBinAddr: 0x10000EF80, symSize: 0x50 }
  - { offsetInCU: 0x1D6EC, offset: 0x1D6EC, size: 0x8, addend: 0x0, symName: __ZNSt3__17advanceB7v160006INS_21__tree_const_iteratorINS_12__value_typeINS_12basic_stringIcNS_11char_traitsIcEENS_9allocatorIcEEEE9JSONValueEEPNS_11__tree_nodeISA_PvEElEEllvEEvRT_T0_, symObjAddr: 0xFB00, symBinAddr: 0x1000111E8, symSize: 0x50 }
  - { offsetInCU: 0x1DCB3, offset: 0x1DCB3, size: 0x8, addend: 0x0, symName: __ZNSt3__16copy_nB7v160006IPKcmPcEENS_9enable_ifIXsr33__is_cpp17_random_access_iteratorIT_EE5valueET1_E4typeES5_T0_S6_, symObjAddr: 0x15310, symBinAddr: 0x1000169F8, symSize: 0x44 }
  - { offsetInCU: 0x1F129, offset: 0x1F129, size: 0x8, addend: 0x0, symName: __ZNSt3__111this_thread9sleep_forB7v160006IxNS_5ratioILl1ELl1000EEEEEvRKNS_6chrono8durationIT_T0_EE, symObjAddr: 0xDC, symBinAddr: 0x1000017C4, symSize: 0xBC }
  - { offsetInCU: 0x1F191, offset: 0x1F191, size: 0x8, addend: 0x0, symName: __ZNSt3__111this_thread5yieldB7v160006Ev, symObjAddr: 0x1D4, symBinAddr: 0x1000018BC, symSize: 0x1C }
  - { offsetInCU: 0x1F1C8, offset: 0x1F1C8, size: 0x8, addend: 0x0, symName: __ZNSt3__1neB7v160006ERKNS_25__hash_map_const_iteratorINS_21__hash_const_iteratorIPNS_11__hash_nodeINS_17__hash_value_typeI3PSKNS_12basic_stringIcNS_11char_traitsIcEENS_9allocatorIcEEEEEEPvEEEEEESI_, symObjAddr: 0xE3C, symBinAddr: 0x100002524, symSize: 0x30 }
  - { offsetInCU: 0x1F205, offset: 0x1F205, size: 0x8, addend: 0x0, symName: __ZNSt3__1neB7v160006ERKNS_25__hash_map_const_iteratorINS_21__hash_const_iteratorIPNS_11__hash_nodeINS_17__hash_value_typeINS_12basic_stringIcNS_11char_traitsIcEENS_9allocatorIcEEEE3PSKEEPvEEEEEESI_, symObjAddr: 0x107C, symBinAddr: 0x100002764, symSize: 0x30 }
  - { offsetInCU: 0x1F242, offset: 0x1F242, size: 0x8, addend: 0x0, symName: __ZNSt3__1plB7v160006IcNS_11char_traitsIcEENS_9allocatorIcEEEENS_12basic_stringIT_T0_T1_EEOS9_PKS6_, symObjAddr: 0x1110, symBinAddr: 0x1000027F8, symSize: 0x40 }
  - { offsetInCU: 0x1F29A, offset: 0x1F29A, size: 0x8, addend: 0x0, symName: __ZNSt3__13maxB7v160006IfEERKT_S3_S3_, symObjAddr: 0x1800, symBinAddr: 0x100002EE8, symSize: 0x2C }
  - { offsetInCU: 0x1F2DD, offset: 0x1F2DD, size: 0x8, addend: 0x0, symName: __ZNSt3__13minB7v160006IfEERKT_S3_S3_, symObjAddr: 0x182C, symBinAddr: 0x100002F14, symSize: 0x2C }
  - { offsetInCU: 0x1F320, offset: 0x1F320, size: 0x8, addend: 0x0, symName: __ZNSt3__121__libcpp_thread_yieldB7v160006Ev, symObjAddr: 0x33F4, symBinAddr: 0x100004ADC, symSize: 0x14 }
  - { offsetInCU: 0x1F33B, offset: 0x1F33B, size: 0x8, addend: 0x0, symName: __ZNSt3__119__debug_db_insert_cB7v160006INS_13unordered_mapI3PSKP8PSObjectNS_4hashIS2_EENS_8equal_toIS2_EENS_9allocatorINS_4pairIKS2_S4_EEEEEEEEvPT_, symObjAddr: 0x3ED0, symBinAddr: 0x1000055B8, symSize: 0x10 }
  - { offsetInCU: 0x1F36B, offset: 0x1F36B, size: 0x8, addend: 0x0, symName: __ZNSt3__1neB7v160006ERKNS_19__hash_map_iteratorINS_15__hash_iteratorIPNS_11__hash_nodeINS_17__hash_value_typeI3PSKP8PSObjectEEPvEEEEEESE_, symObjAddr: 0x464C, symBinAddr: 0x100005D34, symSize: 0x30 }
  - { offsetInCU: 0x1F3A8, offset: 0x1F3A8, size: 0x8, addend: 0x0, symName: __ZNSt3__1neB7v160006ERKNS_15__hash_iteratorIPNS_11__hash_nodeINS_17__hash_value_typeI3PSKP8PSObjectEEPvEEEESC_, symObjAddr: 0x4858, symBinAddr: 0x100005F40, symSize: 0x34 }
  - { offsetInCU: 0x1F3E6, offset: 0x1F3E6, size: 0x8, addend: 0x0, symName: __ZNSt3__1eqB7v160006ERKNS_15__hash_iteratorIPNS_11__hash_nodeINS_17__hash_value_typeI3PSKP8PSObjectEEPvEEEESC_, symObjAddr: 0x488C, symBinAddr: 0x100005F74, symSize: 0x30 }
  - { offsetInCU: 0x1F488, offset: 0x1F488, size: 0x8, addend: 0x0, symName: __ZNSt3__17launderB7v160006INS_4pairIK3PSKP8PSObjectEEEEPT_S8_, symObjAddr: 0x495C, symBinAddr: 0x100006044, symSize: 0x24 }
  - { offsetInCU: 0x1F4C0, offset: 0x1F4C0, size: 0x8, addend: 0x0, symName: __ZNSt3__19__launderB7v160006INS_4pairIK3PSKP8PSObjectEEEEPT_S8_, symObjAddr: 0x4980, symBinAddr: 0x100006068, symSize: 0x14 }
  - { offsetInCU: 0x1F4F7, offset: 0x1F4F7, size: 0x8, addend: 0x0, symName: __ZNSt3__118__debug_db_erase_cB7v160006INS_12__hash_tableINS_17__hash_value_typeI3PSKP8PSObjectEENS_22__unordered_map_hasherIS3_S6_NS_4hashIS3_EENS_8equal_toIS3_EELb1EEENS_21__unordered_map_equalIS3_S6_SB_S9_Lb1EEENS_9allocatorIS6_EEEEEEvPT_, symObjAddr: 0x4B0C, symBinAddr: 0x1000061F4, symSize: 0x10 }
  - { offsetInCU: 0x1F527, offset: 0x1F527, size: 0x8, addend: 0x0, symName: __ZNSt3__119__libcpp_deallocateB7v160006EPvmm, symObjAddr: 0x4C54, symBinAddr: 0x10000633C, symSize: 0x60 }
  - { offsetInCU: 0x1F58D, offset: 0x1F58D, size: 0x8, addend: 0x0, symName: __ZNSt3__124__is_overaligned_for_newB7v160006Em, symObjAddr: 0x4CB4, symBinAddr: 0x10000639C, symSize: 0x20 }
  - { offsetInCU: 0x1F5BA, offset: 0x1F5BA, size: 0x8, addend: 0x0, symName: __ZNSt3__127__do_deallocate_handle_sizeB7v160006IJSt11align_val_tEEEvPvmDpT_, symObjAddr: 0x4CD4, symBinAddr: 0x1000063BC, symSize: 0x30 }
  - { offsetInCU: 0x1F60D, offset: 0x1F60D, size: 0x8, addend: 0x0, symName: __ZNSt3__127__do_deallocate_handle_sizeB7v160006IJEEEvPvmDpT_, symObjAddr: 0x4D04, symBinAddr: 0x1000063EC, symSize: 0x28 }
  - { offsetInCU: 0x1F64B, offset: 0x1F64B, size: 0x8, addend: 0x0, symName: __ZNSt3__124__libcpp_operator_deleteB7v160006IJPvSt11align_val_tEEEvDpT_, symObjAddr: 0x4D2C, symBinAddr: 0x100006414, symSize: 0x2C }
  - { offsetInCU: 0x1F694, offset: 0x1F694, size: 0x8, addend: 0x0, symName: __ZNSt3__124__libcpp_operator_deleteB7v160006IJPvEEEvDpT_, symObjAddr: 0x4D58, symBinAddr: 0x100006440, symSize: 0x24 }
  - { offsetInCU: 0x1F6CA, offset: 0x1F6CA, size: 0x8, addend: 0x0, symName: __ZNSt3__116__constrain_hashB7v160006Emm, symObjAddr: 0x5338, symBinAddr: 0x100006A20, symSize: 0x98 }
  - { offsetInCU: 0x1F75B, offset: 0x1F75B, size: 0x8, addend: 0x0, symName: __ZNSt3__17launderB7v160006IKNS_4pairIK3PSKP8PSObjectEEEEPT_S9_, symObjAddr: 0x5694, symBinAddr: 0x100006D7C, symSize: 0x24 }
  - { offsetInCU: 0x1F793, offset: 0x1F793, size: 0x8, addend: 0x0, symName: __ZNSt3__19__launderB7v160006IKNS_4pairIK3PSKP8PSObjectEEEEPT_S9_, symObjAddr: 0x56B8, symBinAddr: 0x100006DA0, symSize: 0x14 }
  - { offsetInCU: 0x1F7FC, offset: 0x1F7FC, size: 0x8, addend: 0x0, symName: __ZNSt3__1plB7v160006IcNS_11char_traitsIcEENS_9allocatorIcEEEENS_12basic_stringIT_T0_T1_EEOS9_RKS9_, symObjAddr: 0x6290, symBinAddr: 0x100007978, symSize: 0x40 }
  - { offsetInCU: 0x1F855, offset: 0x1F855, size: 0x8, addend: 0x0, symName: __ZNSt3__112__to_addressB7v160006IKcEEPT_S3_, symObjAddr: 0x63F8, symBinAddr: 0x100007AE0, symSize: 0x14 }
  - { offsetInCU: 0x1F8BD, offset: 0x1F8BD, size: 0x8, addend: 0x0, symName: __ZNSt3__119__debug_db_insert_cB7v160006INS_12basic_stringIcNS_11char_traitsIcEENS_9allocatorIcEEEEEEvPT_, symObjAddr: 0x6658, symBinAddr: 0x100007D40, symSize: 0x10 }
  - { offsetInCU: 0x1F8EE, offset: 0x1F8EE, size: 0x8, addend: 0x0, symName: __ZNSt3__115__debug_db_swapB7v160006INS_12basic_stringIcNS_11char_traitsIcEENS_9allocatorIcEEEEEEvPT_S8_, symObjAddr: 0x6668, symBinAddr: 0x100007D50, symSize: 0x14 }
  - { offsetInCU: 0x1F963, offset: 0x1F963, size: 0x8, addend: 0x0, symName: __ZNSt3__116forward_as_tupleB7v160006IJRK3PSKEEENS_5tupleIJDpOT_EEES7_, symObjAddr: 0x6BD4, symBinAddr: 0x1000082BC, symSize: 0x2C }
  - { offsetInCU: 0x1F99D, offset: 0x1F99D, size: 0x8, addend: 0x0, symName: __ZNSt3__116forward_as_tupleB7v160006IJEEENS_5tupleIJDpOT_EEES4_, symObjAddr: 0x6C00, symBinAddr: 0x1000082E8, symSize: 0x4 }
  - { offsetInCU: 0x1F9C0, offset: 0x1F9C0, size: 0x8, addend: 0x0, symName: __ZNSt3__13maxB7v160006ImEERKT_S3_S3_, symObjAddr: 0x6DC8, symBinAddr: 0x1000084B0, symSize: 0x2C }
  - { offsetInCU: 0x1FA04, offset: 0x1FA04, size: 0x8, addend: 0x0, symName: __ZNSt3__116__is_hash_power2B7v160006Em, symObjAddr: 0x6DF4, symBinAddr: 0x1000084DC, symSize: 0x50 }
  - { offsetInCU: 0x1FA4D, offset: 0x1FA4D, size: 0x8, addend: 0x0, symName: __ZNSt3__117__libcpp_allocateB7v160006Emm, symObjAddr: 0x7144, symBinAddr: 0x10000882C, symSize: 0x60 }
  - { offsetInCU: 0x1FAA7, offset: 0x1FAA7, size: 0x8, addend: 0x0, symName: __ZNSt3__121__libcpp_operator_newB7v160006IJmSt11align_val_tEEEPvDpT_, symObjAddr: 0x71B8, symBinAddr: 0x1000088A0, symSize: 0x2C }
  - { offsetInCU: 0x1FAF4, offset: 0x1FAF4, size: 0x8, addend: 0x0, symName: __ZNSt3__121__libcpp_operator_newB7v160006IJmEEEPvDpT_, symObjAddr: 0x71E4, symBinAddr: 0x1000088CC, symSize: 0x24 }
  - { offsetInCU: 0x1FB39, offset: 0x1FB39, size: 0x8, addend: 0x0, symName: __ZNSt3__13getB7v160006ILm0EJRK3PSKEEERNS_13tuple_elementIXT_ENS_5tupleIJDpT0_EEEE4typeERS8_, symObjAddr: 0x7460, symBinAddr: 0x100008B48, symSize: 0x24 }
  - { offsetInCU: 0x1FB7C, offset: 0x1FB7C, size: 0x8, addend: 0x0, symName: __ZNSt3__116__next_hash_pow2B7v160006Em, symObjAddr: 0x796C, symBinAddr: 0x100009054, symSize: 0x6C }
  - { offsetInCU: 0x1FBA9, offset: 0x1FBA9, size: 0x8, addend: 0x0, symName: __ZNSt3__125__debug_db_invalidate_allB7v160006INS_12__hash_tableINS_17__hash_value_typeI3PSKP8PSObjectEENS_22__unordered_map_hasherIS3_S6_NS_4hashIS3_EENS_8equal_toIS3_EELb1EEENS_21__unordered_map_equalIS3_S6_SB_S9_Lb1EEENS_9allocatorIS6_EEEEEEvPT_, symObjAddr: 0x79D8, symBinAddr: 0x1000090C0, symSize: 0x10 }
  - { offsetInCU: 0x1FBDA, offset: 0x1FBDA, size: 0x8, addend: 0x0, symName: __ZNSt3__112__libcpp_clzB7v160006Em, symObjAddr: 0x7B40, symBinAddr: 0x100009228, symSize: 0x1C }
  - { offsetInCU: 0x1FC05, offset: 0x1FC05, size: 0x8, addend: 0x0, symName: __ZNSt3__13maxB7v160006ImNS_6__lessImmEEEERKT_S5_S5_T0_, symObjAddr: 0x7B5C, symBinAddr: 0x100009244, symSize: 0x54 }
  - { offsetInCU: 0x1FCBE, offset: 0x1FCBE, size: 0x8, addend: 0x0, symName: __ZNSt3__15clampB7v160006IfEERKT_S3_S3_S3_, symObjAddr: 0x7EAC, symBinAddr: 0x100009594, symSize: 0x34 }
  - { offsetInCU: 0x1FD0F, offset: 0x1FD0F, size: 0x8, addend: 0x0, symName: __ZNSt3__15clampB7v160006IfNS_6__lessIffEEEERKT_S5_S5_S5_T0_, symObjAddr: 0x7EE0, symBinAddr: 0x1000095C8, symSize: 0x88 }
  - { offsetInCU: 0x1FDB2, offset: 0x1FDB2, size: 0x8, addend: 0x0, symName: __ZNSt3__13maxB7v160006IfNS_6__lessIffEEEERKT_S5_S5_T0_, symObjAddr: 0x7F9C, symBinAddr: 0x100009684, symSize: 0x54 }
  - { offsetInCU: 0x1FE0C, offset: 0x1FE0C, size: 0x8, addend: 0x0, symName: __ZNSt3__13minB7v160006IfNS_6__lessIffEEEERKT_S5_S5_T0_, symObjAddr: 0x7FF0, symBinAddr: 0x1000096D8, symSize: 0x54 }
  - { offsetInCU: 0x20525, offset: 0x20525, size: 0x8, addend: 0x0, symName: __ZNSt3__1lsB7v160006INS_11char_traitsIcEEEERNS_13basic_ostreamIcT_EES6_PKc, symObjAddr: 0x8AA0, symBinAddr: 0x10000A188, symSize: 0x48 }
  - { offsetInCU: 0x2056B, offset: 0x2056B, size: 0x8, addend: 0x0, symName: __ZNSt3__14endlB7v160006IcNS_11char_traitsIcEEEERNS_13basic_ostreamIT_T0_EES7_, symObjAddr: 0x8B14, symBinAddr: 0x10000A1FC, symSize: 0x58 }
  - { offsetInCU: 0x205AB, offset: 0x205AB, size: 0x8, addend: 0x0, symName: __ZNSt3__1plB7v160006IcNS_11char_traitsIcEENS_9allocatorIcEEEENS_12basic_stringIT_T0_T1_EEPKS6_OS9_, symObjAddr: 0x8B6C, symBinAddr: 0x10000A254, symSize: 0x44 }
  - { offsetInCU: 0x20A0B, offset: 0x20A0B, size: 0x8, addend: 0x0, symName: __ZNSt3__116__pad_and_outputB7v160006IcNS_11char_traitsIcEEEENS_19ostreambuf_iteratorIT_T0_EES6_PKS4_S8_S8_RNS_8ios_baseES4_, symObjAddr: 0x91AC, symBinAddr: 0x10000A894, symSize: 0x240 }
  - { offsetInCU: 0x20ADB, offset: 0x20ADB, size: 0x8, addend: 0x0, symName: __ZNSt3__112__to_addressB7v160006IcEEPT_S2_, symObjAddr: 0x95F8, symBinAddr: 0x10000ACE0, symSize: 0x14 }
  - { offsetInCU: 0x20B42, offset: 0x20B42, size: 0x8, addend: 0x0, symName: __ZNSt3__19use_facetB7v160006INS_5ctypeIcEEEERKT_RKNS_6localeE, symObjAddr: 0x9800, symBinAddr: 0x10000AEE8, symSize: 0x2C }
  - { offsetInCU: 0x21011, offset: 0x21011, size: 0x8, addend: 0x0, symName: __ZNSt3__118__constexpr_strlenB7v160006EPKc, symObjAddr: 0x9864, symBinAddr: 0x10000AF4C, symSize: 0x24 }
  - { offsetInCU: 0x2103E, offset: 0x2103E, size: 0x8, addend: 0x0, symName: __ZNSt3__119__debug_db_insert_cB7v160006INS_6vectorI9JSONValueNS_9allocatorIS2_EEEEEEvPT_, symObjAddr: 0xB614, symBinAddr: 0x10000CCFC, symSize: 0x10 }
  - { offsetInCU: 0x210A1, offset: 0x210A1, size: 0x8, addend: 0x0, symName: __ZNSt3__116forward_as_tupleB7v160006IJRKNS_12basic_stringIcNS_11char_traitsIcEENS_9allocatorIcEEEEEEENS_5tupleIJDpOT_EEESC_, symObjAddr: 0xBB7C, symBinAddr: 0x10000D264, symSize: 0x2C }
  - { offsetInCU: 0x210DA, offset: 0x210DA, size: 0x8, addend: 0x0, symName: __ZNSt3__1ltB7v160006IcNS_11char_traitsIcEENS_9allocatorIcEEEEbRKNS_12basic_stringIT_T0_T1_EESB_, symObjAddr: 0xC270, symBinAddr: 0x10000D958, symSize: 0x38 }
  - { offsetInCU: 0x21156, offset: 0x21156, size: 0x8, addend: 0x0, symName: __ZNSt3__13minB7v160006ImEERKT_S3_S3_, symObjAddr: 0xC50C, symBinAddr: 0x10000DBF4, symSize: 0x2C }
  - { offsetInCU: 0x21199, offset: 0x21199, size: 0x8, addend: 0x0, symName: __ZNSt3__118__constexpr_memcmpB7v160006IcEEiPKT_S3_m, symObjAddr: 0xC538, symBinAddr: 0x10000DC20, symSize: 0x34 }
  - { offsetInCU: 0x211EA, offset: 0x211EA, size: 0x8, addend: 0x0, symName: __ZNSt3__13minB7v160006ImNS_6__lessImmEEEERKT_S5_S5_T0_, symObjAddr: 0xC56C, symBinAddr: 0x10000DC54, symSize: 0x54 }
  - { offsetInCU: 0x21244, offset: 0x21244, size: 0x8, addend: 0x0, symName: __ZNSt3__17launderB7v160006IKNS_4pairIKNS_12basic_stringIcNS_11char_traitsIcEENS_9allocatorIcEEEE9JSONValueEEEEPT_SD_, symObjAddr: 0xC64C, symBinAddr: 0x10000DD34, symSize: 0x24 }
  - { offsetInCU: 0x2127C, offset: 0x2127C, size: 0x8, addend: 0x0, symName: __ZNSt3__19__launderB7v160006IKNS_4pairIKNS_12basic_stringIcNS_11char_traitsIcEENS_9allocatorIcEEEE9JSONValueEEEEPT_SD_, symObjAddr: 0xC670, symBinAddr: 0x10000DD58, symSize: 0x14 }
  - { offsetInCU: 0x212D0, offset: 0x212D0, size: 0x8, addend: 0x0, symName: __ZNSt3__13getB7v160006ILm0EJRKNS_12basic_stringIcNS_11char_traitsIcEENS_9allocatorIcEEEEEEERNS_13tuple_elementIXT_ENS_5tupleIJDpT0_EEEE4typeERSD_, symObjAddr: 0xCB54, symBinAddr: 0x10000E23C, symSize: 0x24 }
  - { offsetInCU: 0x21313, offset: 0x21313, size: 0x8, addend: 0x0, symName: __ZNSt3__127__tree_balance_after_insertB7v160006IPNS_16__tree_node_baseIPvEEEEvT_S5_, symObjAddr: 0xCC04, symBinAddr: 0x10000E2EC, symSize: 0x32C }
  - { offsetInCU: 0x21390, offset: 0x21390, size: 0x8, addend: 0x0, symName: __ZNSt3__120__tree_is_left_childB7v160006IPNS_16__tree_node_baseIPvEEEEbT_, symObjAddr: 0xCF70, symBinAddr: 0x10000E658, symSize: 0x2C }
  - { offsetInCU: 0x213C4, offset: 0x213C4, size: 0x8, addend: 0x0, symName: __ZNSt3__118__tree_left_rotateB7v160006IPNS_16__tree_node_baseIPvEEEEvT_, symObjAddr: 0xCF9C, symBinAddr: 0x10000E684, symSize: 0xD8 }
  - { offsetInCU: 0x21406, offset: 0x21406, size: 0x8, addend: 0x0, symName: __ZNSt3__119__tree_right_rotateB7v160006IPNS_16__tree_node_baseIPvEEEEvT_, symObjAddr: 0xD074, symBinAddr: 0x10000E75C, symSize: 0xCC }
  - { offsetInCU: 0x21490, offset: 0x21490, size: 0x8, addend: 0x0, symName: __ZNSt3__17launderB7v160006INS_4pairIKNS_12basic_stringIcNS_11char_traitsIcEENS_9allocatorIcEEEE9JSONValueEEEEPT_SC_, symObjAddr: 0xD574, symBinAddr: 0x10000EC5C, symSize: 0x24 }
  - { offsetInCU: 0x214C8, offset: 0x214C8, size: 0x8, addend: 0x0, symName: __ZNSt3__19__launderB7v160006INS_4pairIKNS_12basic_stringIcNS_11char_traitsIcEENS_9allocatorIcEEEE9JSONValueEEEEPT_SC_, symObjAddr: 0xD598, symBinAddr: 0x10000EC80, symSize: 0x14 }
  - { offsetInCU: 0x214FE, offset: 0x214FE, size: 0x8, addend: 0x0, symName: __ZNSt3__18distanceB7v160006IP9JSONValueEENS_15iterator_traitsIT_E15difference_typeES4_S4_, symObjAddr: 0xD804, symBinAddr: 0x10000EEEC, symSize: 0x2C }
  - { offsetInCU: 0x21541, offset: 0x21541, size: 0x8, addend: 0x0, symName: __ZNSt3__14copyB7v160006IP9JSONValueS2_EET0_T_S4_S3_, symObjAddr: 0xD8E8, symBinAddr: 0x10000EFD0, symSize: 0x40 }
  - { offsetInCU: 0x2159C, offset: 0x2159C, size: 0x8, addend: 0x0, symName: __ZNSt3__125__debug_db_invalidate_allB7v160006INS_6vectorI9JSONValueNS_9allocatorIS2_EEEEEEvPT_, symObjAddr: 0xDC08, symBinAddr: 0x10000F2F0, symSize: 0x10 }
  - { offsetInCU: 0x215CD, offset: 0x215CD, size: 0x8, addend: 0x0, symName: __ZNSt3__110__distanceB7v160006IP9JSONValueEENS_15iterator_traitsIT_E15difference_typeES4_S4_NS_26random_access_iterator_tagE, symObjAddr: 0xDC18, symBinAddr: 0x10000F300, symSize: 0x28 }
  - { offsetInCU: 0x2161B, offset: 0x2161B, size: 0x8, addend: 0x0, symName: __ZNSt3__121__convert_to_integralB7v160006Em, symObjAddr: 0xDCA0, symBinAddr: 0x10000F388, symSize: 0x14 }
  - { offsetInCU: 0x21647, offset: 0x21647, size: 0x8, addend: 0x0, symName: __ZNSt3__19__advanceB7v160006IP9JSONValueEEvRT_NS_15iterator_traitsIS3_E15difference_typeENS_26random_access_iterator_tagE, symObjAddr: 0xDCB4, symBinAddr: 0x10000F39C, symSize: 0x30 }
  - { offsetInCU: 0x21690, offset: 0x21690, size: 0x8, addend: 0x0, symName: __ZNSt3__16__copyB7v160006INS_17_ClassicAlgPolicyEP9JSONValueS3_S3_EENS_4pairIT0_T2_EES5_T1_S6_, symObjAddr: 0xDCE4, symBinAddr: 0x10000F3CC, symSize: 0x44 }
  - { offsetInCU: 0x216FC, offset: 0x216FC, size: 0x8, addend: 0x0, symName: __ZNSt3__123__dispatch_copy_or_moveB7v160006INS_17_ClassicAlgPolicyENS_11__copy_loopIS1_EENS_14__copy_trivialEP9JSONValueS6_S6_EENS_4pairIT2_T4_EES8_T3_S9_, symObjAddr: 0xDD28, symBinAddr: 0x10000F410, symSize: 0x44 }
  - { offsetInCU: 0x2177A, offset: 0x2177A, size: 0x8, addend: 0x0, symName: __ZNSt3__121__unwrap_and_dispatchB7v160006INS_10__overloadINS_11__copy_loopINS_17_ClassicAlgPolicyEEENS_14__copy_trivialEEEP9JSONValueS8_S8_Li0EEENS_4pairIT0_T2_EESA_T1_SB_, symObjAddr: 0xDD6C, symBinAddr: 0x10000F454, symSize: 0xB4 }
  - { offsetInCU: 0x21808, offset: 0x21808, size: 0x8, addend: 0x0, symName: __ZNSt3__114__unwrap_rangeB7v160006IP9JSONValueS2_EENS_4pairIT0_S4_EET_S6_, symObjAddr: 0xDE20, symBinAddr: 0x10000F508, symSize: 0x60 }
  - { offsetInCU: 0x21983, offset: 0x21983, size: 0x8, addend: 0x0, symName: __ZNSt3__113__unwrap_iterB7v160006IP9JSONValueNS_18__unwrap_iter_implIS2_Lb1EEELi0EEEDTclsrT0_8__unwrapclsr3stdE7declvalIT_EEEES6_, symObjAddr: 0xDF08, symBinAddr: 0x10000F5F0, symSize: 0x24 }
  - { offsetInCU: 0x219C7, offset: 0x219C7, size: 0x8, addend: 0x0, symName: __ZNSt3__19make_pairB7v160006IP9JSONValueS2_EENS_4pairINS_18__unwrap_ref_decayIT_E4typeENS4_IT0_E4typeEEEOS5_OS8_, symObjAddr: 0xDF2C, symBinAddr: 0x10000F614, symSize: 0x38 }
  - { offsetInCU: 0x21A16, offset: 0x21A16, size: 0x8, addend: 0x0, symName: __ZNSt3__114__rewrap_rangeB7v160006IP9JSONValueS2_EET_S3_T0_, symObjAddr: 0xDF64, symBinAddr: 0x10000F64C, symSize: 0x2C }
  - { offsetInCU: 0x21A62, offset: 0x21A62, size: 0x8, addend: 0x0, symName: __ZNSt3__113__rewrap_iterB7v160006IP9JSONValueS2_NS_18__unwrap_iter_implIS2_Lb1EEEEET_S5_T0_, symObjAddr: 0xDF90, symBinAddr: 0x10000F678, symSize: 0x3C }
  - { offsetInCU: 0x21B0B, offset: 0x21B0B, size: 0x8, addend: 0x0, symName: __ZNSt3__112__to_addressB7v160006I9JSONValueEEPT_S3_, symObjAddr: 0xDFF0, symBinAddr: 0x10000F6D8, symSize: 0x14 }
  - { offsetInCU: 0x21B3F, offset: 0x21B3F, size: 0x8, addend: 0x0, symName: __ZNSt3__130__uninitialized_allocator_copyB7v160006INS_9allocatorI9JSONValueEEPS2_S4_S4_EET2_RT_T0_T1_S5_, symObjAddr: 0xE108, symBinAddr: 0x10000F7F0, symSize: 0xF4 }
  - { offsetInCU: 0x21BDD, offset: 0x21BDD, size: 0x8, addend: 0x0, symName: __ZNSt3__122__make_exception_guardB7v160006INS_29_AllocatorDestroyRangeReverseINS_9allocatorI9JSONValueEEPS3_EEEENS_28__exception_guard_exceptionsIT_EES8_, symObjAddr: 0xE29C, symBinAddr: 0x10000F984, symSize: 0x4C }
  - { offsetInCU: 0x21C13, offset: 0x21C13, size: 0x8, addend: 0x0, symName: __ZNSt3__122__make_exception_guardB7v160006INS_6vectorI9JSONValueNS_9allocatorIS2_EEE16__destroy_vectorEEENS_28__exception_guard_exceptionsIT_EES8_, symObjAddr: 0xE794, symBinAddr: 0x10000FE7C, symSize: 0x40 }
  - { offsetInCU: 0x21C49, offset: 0x21C49, size: 0x8, addend: 0x0, symName: __ZNSt3__118__debug_db_erase_cB7v160006INS_6vectorI9JSONValueNS_9allocatorIS2_EEEEEEvPT_, symObjAddr: 0xEB1C, symBinAddr: 0x100010204, symSize: 0x10 }
  - { offsetInCU: 0x21C79, offset: 0x21C79, size: 0x8, addend: 0x0, symName: __ZNSt3__1neB7v160006ERKNS_20__map_const_iteratorINS_21__tree_const_iteratorINS_12__value_typeINS_12basic_stringIcNS_11char_traitsIcEENS_9allocatorIcEEEE9JSONValueEEPNS_11__tree_nodeISA_PvEElEEEESI_, symObjAddr: 0xF130, symBinAddr: 0x100010818, symSize: 0x30 }
  - { offsetInCU: 0x21CB6, offset: 0x21CB6, size: 0x8, addend: 0x0, symName: __ZNSt3__1neB7v160006ERKNS_21__tree_const_iteratorINS_12__value_typeINS_12basic_stringIcNS_11char_traitsIcEENS_9allocatorIcEEEE9JSONValueEEPNS_11__tree_nodeIS9_PvEElEESG_, symObjAddr: 0xF238, symBinAddr: 0x100010920, symSize: 0x34 }
  - { offsetInCU: 0x21CF4, offset: 0x21CF4, size: 0x8, addend: 0x0, symName: __ZNSt3__1eqB7v160006ERKNS_21__tree_const_iteratorINS_12__value_typeINS_12basic_stringIcNS_11char_traitsIcEENS_9allocatorIcEEEE9JSONValueEEPNS_11__tree_nodeIS9_PvEElEESG_, symObjAddr: 0xF26C, symBinAddr: 0x100010954, symSize: 0x30 }
  - { offsetInCU: 0x21D54, offset: 0x21D54, size: 0x8, addend: 0x0, symName: __ZNSt3__14nextB7v160006INS_21__tree_const_iteratorINS_12__value_typeINS_12basic_stringIcNS_11char_traitsIcEENS_9allocatorIcEEEE9JSONValueEEPNS_11__tree_nodeISA_PvEElEEEENS_9enable_ifIXsr25__is_cpp17_input_iteratorIT_EE5valueESH_E4typeESH_NS_15iterator_traitsISH_E15difference_typeE, symObjAddr: 0xF95C, symBinAddr: 0x100011044, symSize: 0x50 }
  - { offsetInCU: 0x21D97, offset: 0x21D97, size: 0x8, addend: 0x0, symName: __ZNSt3__116__tree_prev_iterB7v160006IPNS_16__tree_node_baseIPvEEPNS_15__tree_end_nodeIS4_EEEET_T0_, symObjAddr: 0xFA38, symBinAddr: 0x100011120, symSize: 0x88 }
  - { offsetInCU: 0x21DE4, offset: 0x21DE4, size: 0x8, addend: 0x0, symName: __ZNSt3__110__tree_maxB7v160006IPNS_16__tree_node_baseIPvEEEET_S5_, symObjAddr: 0xFAC0, symBinAddr: 0x1000111A8, symSize: 0x40 }
  - { offsetInCU: 0x21E19, offset: 0x21E19, size: 0x8, addend: 0x0, symName: __ZNSt3__121__convert_to_integralB7v160006El, symObjAddr: 0xFB50, symBinAddr: 0x100011238, symSize: 0x14 }
  - { offsetInCU: 0x21E44, offset: 0x21E44, size: 0x8, addend: 0x0, symName: __ZNSt3__19__advanceB7v160006INS_21__tree_const_iteratorINS_12__value_typeINS_12basic_stringIcNS_11char_traitsIcEENS_9allocatorIcEEEE9JSONValueEEPNS_11__tree_nodeISA_PvEElEEEEvRT_NS_15iterator_traitsISG_E15difference_typeENS_26bidirectional_iterator_tagE, symObjAddr: 0xFB64, symBinAddr: 0x10001124C, symSize: 0xA4 }
  - { offsetInCU: 0x21E8E, offset: 0x21E8E, size: 0x8, addend: 0x0, symName: __ZNSt3__116__tree_next_iterB7v160006IPNS_15__tree_end_nodeIPNS_16__tree_node_baseIPvEEEES5_EET_T0_, symObjAddr: 0xFC40, symBinAddr: 0x100011328, symSize: 0x80 }
  - { offsetInCU: 0x21ECD, offset: 0x21ECD, size: 0x8, addend: 0x0, symName: __ZNSt3__110__tree_minB7v160006IPNS_16__tree_node_baseIPvEEEET_S5_, symObjAddr: 0xFCC0, symBinAddr: 0x1000113A8, symSize: 0x40 }
  - { offsetInCU: 0x21F34, offset: 0x21F34, size: 0x8, addend: 0x0, symName: __ZNSt3__119__allocator_destroyB7v160006INS_9allocatorI9JSONValueEENS_16reverse_iteratorIPS2_EES6_EEvRT_T0_T1_, symObjAddr: 0x10134, symBinAddr: 0x10001181C, symSize: 0x70 }
  - { offsetInCU: 0x21F97, offset: 0x21F97, size: 0x8, addend: 0x0, symName: __ZNSt3__1neB7v160006IP9JSONValueS2_EEbRKNS_16reverse_iteratorIT_EERKNS3_IT0_EE, symObjAddr: 0x101D8, symBinAddr: 0x1000118C0, symSize: 0x48 }
  - { offsetInCU: 0x21FE3, offset: 0x21FE3, size: 0x8, addend: 0x0, symName: __ZNSt3__112__to_addressB7v160006INS_16reverse_iteratorIP9JSONValueEEvEENS_5decayIDTclsr19__to_address_helperIT_EE6__callclsr3stdE7declvalIRKS6_EEEEE4typeES8_, symObjAddr: 0x10220, symBinAddr: 0x100011908, symSize: 0x24 }
  - { offsetInCU: 0x22042, offset: 0x22042, size: 0x8, addend: 0x0, symName: __ZNSt3__119__allocate_at_leastB7v160006INS_9allocatorI9JSONValueEEEENS_19__allocation_resultINS_16allocator_traitsIT_E7pointerEEERS6_m, symObjAddr: 0x10594, symBinAddr: 0x100011C7C, symSize: 0x40 }
  - { offsetInCU: 0x22270, offset: 0x22270, size: 0x8, addend: 0x0, symName: __ZNSt3__120__throw_length_errorB7v160006EPKc, symObjAddr: 0x106F4, symBinAddr: 0x100011DDC, symSize: 0x64 }
  - { offsetInCU: 0x22298, offset: 0x22298, size: 0x8, addend: 0x0, symName: __ZNSt3__13getB7v160006ILm0EKNS_12basic_stringIcNS_11char_traitsIcEENS_9allocatorIcEEEE9JSONValueEERKNS_13tuple_elementIXT_ENS_4pairIT0_T1_EEE4typeERKSD_, symObjAddr: 0x10E60, symBinAddr: 0x100012548, symSize: 0x24 }
  - { offsetInCU: 0x222E1, offset: 0x222E1, size: 0x8, addend: 0x0, symName: __ZNSt3__13getB7v160006ILm1EKNS_12basic_stringIcNS_11char_traitsIcEENS_9allocatorIcEEEE9JSONValueEERKNS_13tuple_elementIXT_ENS_4pairIT0_T1_EEE4typeERKSD_, symObjAddr: 0x10E84, symBinAddr: 0x10001256C, symSize: 0x24 }
  - { offsetInCU: 0x223A5, offset: 0x223A5, size: 0x8, addend: 0x0, symName: __ZNSt3__111__tree_leafB7v160006IPNS_16__tree_node_baseIPvEEEET_S5_, symObjAddr: 0x1110C, symBinAddr: 0x1000127F4, symSize: 0x70 }
  - { offsetInCU: 0x223DA, offset: 0x223DA, size: 0x8, addend: 0x0, symName: __ZNSt3__115__debug_db_swapB7v160006INS_6vectorI9JSONValueNS_9allocatorIS2_EEEEEEvPT_S7_, symObjAddr: 0x11724, symBinAddr: 0x100012E0C, symSize: 0x14 }
  - { offsetInCU: 0x22418, offset: 0x22418, size: 0x8, addend: 0x0, symName: __ZNSt3__142__uninitialized_allocator_move_if_noexceptB7v160006INS_9allocatorI9JSONValueEENS_16reverse_iteratorIPS2_EES6_S6_EET2_RT_T0_T1_S7_, symObjAddr: 0x11C5C, symBinAddr: 0x100013344, symSize: 0x11C }
  - { offsetInCU: 0x224B9, offset: 0x224B9, size: 0x8, addend: 0x0, symName: __ZNSt3__14swapB7v160006IP9JSONValueEENS_9enable_ifIXaasr21is_move_constructibleIT_EE5valuesr18is_move_assignableIS4_EE5valueEvE4typeERS4_S7_, symObjAddr: 0x11D78, symBinAddr: 0x100013460, symSize: 0x3C }
  - { offsetInCU: 0x22509, offset: 0x22509, size: 0x8, addend: 0x0, symName: __ZNSt3__122__make_exception_guardB7v160006INS_29_AllocatorDestroyRangeReverseINS_9allocatorI9JSONValueEENS_16reverse_iteratorIPS3_EEEEEENS_28__exception_guard_exceptionsIT_EESA_, symObjAddr: 0x11DB4, symBinAddr: 0x10001349C, symSize: 0x4C }
  - { offsetInCU: 0x2253F, offset: 0x2253F, size: 0x8, addend: 0x0, symName: __ZNSt3__119__allocator_destroyB7v160006INS_9allocatorI9JSONValueEENS_16reverse_iteratorINS4_IPS2_EEEES7_EEvRT_T0_T1_, symObjAddr: 0x1202C, symBinAddr: 0x100013714, symSize: 0x70 }
  - { offsetInCU: 0x225A4, offset: 0x225A4, size: 0x8, addend: 0x0, symName: __ZNSt3__1neB7v160006INS_16reverse_iteratorIP9JSONValueEES4_EEbRKNS1_IT_EERKNS1_IT0_EE, symObjAddr: 0x120D8, symBinAddr: 0x1000137C0, symSize: 0x60 }
  - { offsetInCU: 0x225F0, offset: 0x225F0, size: 0x8, addend: 0x0, symName: __ZNSt3__112__to_addressB7v160006INS_16reverse_iteratorINS1_IP9JSONValueEEEEvEENS_5decayIDTclsr19__to_address_helperIT_EE6__callclsr3stdE7declvalIRKS7_EEEEE4typeES9_, symObjAddr: 0x12138, symBinAddr: 0x100013820, symSize: 0x24 }
  - { offsetInCU: 0x2264F, offset: 0x2264F, size: 0x8, addend: 0x0, symName: __ZNSt3__1neB7v160006IP9JSONValueEEbRKNS_11__wrap_iterIT_EES7_, symObjAddr: 0x1260C, symBinAddr: 0x100013CF4, symSize: 0x34 }
  - { offsetInCU: 0x22693, offset: 0x22693, size: 0x8, addend: 0x0, symName: __ZNSt3__120__throw_out_of_rangeB7v160006EPKc, symObjAddr: 0x126C4, symBinAddr: 0x100013DAC, symSize: 0x64 }
  - { offsetInCU: 0x226BD, offset: 0x226BD, size: 0x8, addend: 0x0, symName: __ZNSt3__1eqB7v160006IP9JSONValueEEbRKNS_11__wrap_iterIT_EES7_, symObjAddr: 0x1283C, symBinAddr: 0x100013F24, symSize: 0x48 }
  - { offsetInCU: 0x22700, offset: 0x22700, size: 0x8, addend: 0x0, symName: __ZNSt3__1eqB7v160006IcNS_11char_traitsIcEENS_9allocatorIcEEEEbRKNS_12basic_stringIT_T0_T1_EEPKS6_, symObjAddr: 0x128C8, symBinAddr: 0x100013FB0, symSize: 0xAC }
  - { offsetInCU: 0x22767, offset: 0x22767, size: 0x8, addend: 0x0, symName: __ZNSt3__1neB7v160006IPK9JSONValueEEbRKNS_11__wrap_iterIT_EES8_, symObjAddr: 0x14904, symBinAddr: 0x100015FEC, symSize: 0x34 }
  - { offsetInCU: 0x227AA, offset: 0x227AA, size: 0x8, addend: 0x0, symName: __ZNSt3__1eqB7v160006IPK9JSONValueEEbRKNS_11__wrap_iterIT_EES8_, symObjAddr: 0x14BB0, symBinAddr: 0x100016298, symSize: 0x48 }
  - { offsetInCU: 0x227ED, offset: 0x227ED, size: 0x8, addend: 0x0, symName: __ZNSt3__119__allocate_at_leastB7v160006INS_9allocatorIcEEEENS_19__allocation_resultINS_16allocator_traitsIT_E7pointerEEERS5_m, symObjAddr: 0x150E0, symBinAddr: 0x1000167C8, symSize: 0x40 }
  - { offsetInCU: 0x22831, offset: 0x22831, size: 0x8, addend: 0x0, symName: __ZNSt3__125__debug_db_invalidate_allB7v160006INS_12basic_stringIcNS_11char_traitsIcEENS_9allocatorIcEEEEEEvPT_, symObjAddr: 0x15270, symBinAddr: 0x100016958, symSize: 0x10 }
  - { offsetInCU: 0x22861, offset: 0x22861, size: 0x8, addend: 0x0, symName: __ZNSt3__14copyB7v160006IPKcPcEET0_T_S5_S4_, symObjAddr: 0x15354, symBinAddr: 0x100016A3C, symSize: 0x40 }
  - { offsetInCU: 0x228BB, offset: 0x228BB, size: 0x8, addend: 0x0, symName: __ZNSt3__16__copyB7v160006INS_17_ClassicAlgPolicyEPKcS3_PcEENS_4pairIT0_T2_EES6_T1_S7_, symObjAddr: 0x15394, symBinAddr: 0x100016A7C, symSize: 0x44 }
  - { offsetInCU: 0x22927, offset: 0x22927, size: 0x8, addend: 0x0, symName: __ZNSt3__123__dispatch_copy_or_moveB7v160006INS_17_ClassicAlgPolicyENS_11__copy_loopIS1_EENS_14__copy_trivialEPKcS6_PcEENS_4pairIT2_T4_EES9_T3_SA_, symObjAddr: 0x153D8, symBinAddr: 0x100016AC0, symSize: 0x44 }
  - { offsetInCU: 0x229A5, offset: 0x229A5, size: 0x8, addend: 0x0, symName: __ZNSt3__121__unwrap_and_dispatchB7v160006INS_10__overloadINS_11__copy_loopINS_17_ClassicAlgPolicyEEENS_14__copy_trivialEEEPKcS8_PcLi0EEENS_4pairIT0_T2_EESB_T1_SC_, symObjAddr: 0x1541C, symBinAddr: 0x100016B04, symSize: 0xB4 }
  - { offsetInCU: 0x22A33, offset: 0x22A33, size: 0x8, addend: 0x0, symName: __ZNSt3__114__unwrap_rangeB7v160006IPKcS2_EENS_4pairIT0_S4_EET_S6_, symObjAddr: 0x154D0, symBinAddr: 0x100016BB8, symSize: 0x60 }
  - { offsetInCU: 0x22BC8, offset: 0x22BC8, size: 0x8, addend: 0x0, symName: __ZNSt3__113__unwrap_iterB7v160006IPcNS_18__unwrap_iter_implIS1_Lb1EEELi0EEEDTclsrT0_8__unwrapclsr3stdE7declvalIT_EEEES5_, symObjAddr: 0x15578, symBinAddr: 0x100016C60, symSize: 0x24 }
  - { offsetInCU: 0x22C0C, offset: 0x22C0C, size: 0x8, addend: 0x0, symName: __ZNSt3__19make_pairB7v160006IPKcPcEENS_4pairINS_18__unwrap_ref_decayIT_E4typeENS5_IT0_E4typeEEEOS6_OS9_, symObjAddr: 0x1559C, symBinAddr: 0x100016C84, symSize: 0x38 }
  - { offsetInCU: 0x22C5B, offset: 0x22C5B, size: 0x8, addend: 0x0, symName: __ZNSt3__114__rewrap_rangeB7v160006IPKcS2_EET_S3_T0_, symObjAddr: 0x155D4, symBinAddr: 0x100016CBC, symSize: 0x2C }
  - { offsetInCU: 0x22CA7, offset: 0x22CA7, size: 0x8, addend: 0x0, symName: __ZNSt3__113__rewrap_iterB7v160006IPcS1_NS_18__unwrap_iter_implIS1_Lb1EEEEET_S4_T0_, symObjAddr: 0x15600, symBinAddr: 0x100016CE8, symSize: 0x3C }
  - { offsetInCU: 0x22CFC, offset: 0x22CFC, size: 0x8, addend: 0x0, symName: __ZNSt3__19make_pairB7v160006IPKcS2_EENS_4pairINS_18__unwrap_ref_decayIT_E4typeENS4_IT0_E4typeEEEOS5_OS8_, symObjAddr: 0x1563C, symBinAddr: 0x100016D24, symSize: 0x38 }
  - { offsetInCU: 0x22D4B, offset: 0x22D4B, size: 0x8, addend: 0x0, symName: __ZNSt3__113__unwrap_iterB7v160006IPKcNS_18__unwrap_iter_implIS2_Lb1EEELi0EEEDTclsrT0_8__unwrapclsr3stdE7declvalIT_EEEES6_, symObjAddr: 0x15674, symBinAddr: 0x100016D5C, symSize: 0x24 }
  - { offsetInCU: 0x22EB6, offset: 0x22EB6, size: 0x8, addend: 0x0, symName: __ZNSt3__119__copy_trivial_implB7v160006IKccEENS_4pairIPT_PT0_EES4_S4_S6_, symObjAddr: 0x1572C, symBinAddr: 0x100016E14, symSize: 0x7C }
  - { offsetInCU: 0x22F1E, offset: 0x22F1E, size: 0x8, addend: 0x0, symName: __ZNSt3__19make_pairB7v160006IRPKcPcEENS_4pairINS_18__unwrap_ref_decayIT_E4typeENS6_IT0_E4typeEEEOS7_OSA_, symObjAddr: 0x157A8, symBinAddr: 0x100016E90, symSize: 0x38 }
  - { offsetInCU: 0x22FC0, offset: 0x22FC0, size: 0x8, addend: 0x0, symName: __ZNSt3__113__rewrap_iterB7v160006IPKcS2_NS_18__unwrap_iter_implIS2_Lb1EEEEET_S5_T0_, symObjAddr: 0x158E4, symBinAddr: 0x100016FCC, symSize: 0x3C }
  - { offsetInCU: 0x23200, offset: 0x23200, size: 0x8, addend: 0x0, symName: __ZNSt3__119__debug_db_insert_cB7v160006INS_13unordered_mapI3PSKNS_12basic_stringIcNS_11char_traitsIcEENS_9allocatorIcEEEENS_4hashIS2_EENS_8equal_toIS2_EENS6_INS_4pairIKS2_S8_EEEEEEEEvPT_, symObjAddr: 0x16774, symBinAddr: 0x100017E5C, symSize: 0x10 }
  - { offsetInCU: 0x23230, offset: 0x23230, size: 0x8, addend: 0x0, symName: __ZNSt3__17launderB7v160006IKNS_4pairIK3PSKNS_12basic_stringIcNS_11char_traitsIcEENS_9allocatorIcEEEEEEEEPT_SD_, symObjAddr: 0x17920, symBinAddr: 0x100019008, symSize: 0x24 }
  - { offsetInCU: 0x23268, offset: 0x23268, size: 0x8, addend: 0x0, symName: __ZNSt3__19__launderB7v160006IKNS_4pairIK3PSKNS_12basic_stringIcNS_11char_traitsIcEENS_9allocatorIcEEEEEEEEPT_SD_, symObjAddr: 0x17944, symBinAddr: 0x10001902C, symSize: 0x14 }
  - { offsetInCU: 0x232EF, offset: 0x232EF, size: 0x8, addend: 0x0, symName: __ZNSt3__17launderB7v160006INS_4pairIK3PSKNS_12basic_stringIcNS_11char_traitsIcEENS_9allocatorIcEEEEEEEEPT_SC_, symObjAddr: 0x17DAC, symBinAddr: 0x100019494, symSize: 0x24 }
  - { offsetInCU: 0x23327, offset: 0x23327, size: 0x8, addend: 0x0, symName: __ZNSt3__19__launderB7v160006INS_4pairIK3PSKNS_12basic_stringIcNS_11char_traitsIcEENS_9allocatorIcEEEEEEEEPT_SC_, symObjAddr: 0x17DD0, symBinAddr: 0x1000194B8, symSize: 0x14 }
  - { offsetInCU: 0x2335E, offset: 0x2335E, size: 0x8, addend: 0x0, symName: __ZNSt3__125__debug_db_invalidate_allB7v160006INS_12__hash_tableINS_17__hash_value_typeI3PSKNS_12basic_stringIcNS_11char_traitsIcEENS_9allocatorIcEEEEEENS_22__unordered_map_hasherIS3_SA_NS_4hashIS3_EENS_8equal_toIS3_EELb1EEENS_21__unordered_map_equalIS3_SA_SF_SD_Lb1EEENS7_ISA_EEEEEEvPT_, symObjAddr: 0x182A0, symBinAddr: 0x100019988, symSize: 0x10 }
  - { offsetInCU: 0x2338F, offset: 0x2338F, size: 0x8, addend: 0x0, symName: __ZNSt3__118__debug_db_erase_cB7v160006INS_12__hash_tableINS_17__hash_value_typeI3PSKNS_12basic_stringIcNS_11char_traitsIcEENS_9allocatorIcEEEEEENS_22__unordered_map_hasherIS3_SA_NS_4hashIS3_EENS_8equal_toIS3_EELb1EEENS_21__unordered_map_equalIS3_SA_SF_SD_Lb1EEENS7_ISA_EEEEEEvPT_, symObjAddr: 0x189A8, symBinAddr: 0x10001A090, symSize: 0x10 }
  - { offsetInCU: 0x233C0, offset: 0x233C0, size: 0x8, addend: 0x0, symName: __ZNSt3__119__debug_db_insert_cB7v160006INS_13unordered_mapINS_12basic_stringIcNS_11char_traitsIcEENS_9allocatorIcEEEE3PSKNS_4hashIS7_EENS_8equal_toIS7_EENS5_INS_4pairIKS7_S8_EEEEEEEEvPT_, symObjAddr: 0x18B6C, symBinAddr: 0x10001A254, symSize: 0x10 }
  - { offsetInCU: 0x233F0, offset: 0x233F0, size: 0x8, addend: 0x0, symName: __ZNSt3__116__do_string_hashB7v160006IPKcEEmT_S3_, symObjAddr: 0x19C38, symBinAddr: 0x10001B320, symSize: 0x3C }
  - { offsetInCU: 0x23437, offset: 0x23437, size: 0x8, addend: 0x0, symName: __ZNSt3__110__loadwordB7v160006ImEET_PKv, symObjAddr: 0x1A62C, symBinAddr: 0x10001BD14, symSize: 0x20 }
  - { offsetInCU: 0x2347A, offset: 0x2347A, size: 0x8, addend: 0x0, symName: __ZNSt3__14swapB7v160006ImEENS_9enable_ifIXaasr21is_move_constructibleIT_EE5valuesr18is_move_assignableIS2_EE5valueEvE4typeERS2_S5_, symObjAddr: 0x1A7E8, symBinAddr: 0x10001BED0, symSize: 0x3C }
  - { offsetInCU: 0x234CB, offset: 0x234CB, size: 0x8, addend: 0x0, symName: __ZNSt3__110__loadwordB7v160006IjEET_PKv, symObjAddr: 0x1A878, symBinAddr: 0x10001BF60, symSize: 0x20 }
  - { offsetInCU: 0x2350D, offset: 0x2350D, size: 0x8, addend: 0x0, symName: __ZNSt3__1eqB7v160006INS_9allocatorIcEEEEbRKNS_12basic_stringIcNS_11char_traitsIcEET_EES9_, symObjAddr: 0x1AB54, symBinAddr: 0x10001C23C, symSize: 0x148 }
  - { offsetInCU: 0x23580, offset: 0x23580, size: 0x8, addend: 0x0, symName: __ZNSt3__17launderB7v160006IKNS_4pairIKNS_12basic_stringIcNS_11char_traitsIcEENS_9allocatorIcEEEE3PSKEEEEPT_SD_, symObjAddr: 0x1AC9C, symBinAddr: 0x10001C384, symSize: 0x24 }
  - { offsetInCU: 0x235B8, offset: 0x235B8, size: 0x8, addend: 0x0, symName: __ZNSt3__19__launderB7v160006IKNS_4pairIKNS_12basic_stringIcNS_11char_traitsIcEENS_9allocatorIcEEEE3PSKEEEEPT_SD_, symObjAddr: 0x1ACC0, symBinAddr: 0x10001C3A8, symSize: 0x14 }
  - { offsetInCU: 0x2363F, offset: 0x2363F, size: 0x8, addend: 0x0, symName: __ZNSt3__17launderB7v160006INS_4pairIKNS_12basic_stringIcNS_11char_traitsIcEENS_9allocatorIcEEEE3PSKEEEEPT_SC_, symObjAddr: 0x1B120, symBinAddr: 0x10001C808, symSize: 0x24 }
  - { offsetInCU: 0x23677, offset: 0x23677, size: 0x8, addend: 0x0, symName: __ZNSt3__19__launderB7v160006INS_4pairIKNS_12basic_stringIcNS_11char_traitsIcEENS_9allocatorIcEEEE3PSKEEEEPT_SC_, symObjAddr: 0x1B144, symBinAddr: 0x10001C82C, symSize: 0x14 }
  - { offsetInCU: 0x236AE, offset: 0x236AE, size: 0x8, addend: 0x0, symName: __ZNSt3__125__debug_db_invalidate_allB7v160006INS_12__hash_tableINS_17__hash_value_typeINS_12basic_stringIcNS_11char_traitsIcEENS_9allocatorIcEEEE3PSKEENS_22__unordered_map_hasherIS8_SA_NS_4hashIS8_EENS_8equal_toIS8_EELb1EEENS_21__unordered_map_equalIS8_SA_SF_SD_Lb1EEENS6_ISA_EEEEEEvPT_, symObjAddr: 0x1B614, symBinAddr: 0x10001CCFC, symSize: 0x10 }
  - { offsetInCU: 0x236DF, offset: 0x236DF, size: 0x8, addend: 0x0, symName: __ZNSt3__118__debug_db_erase_cB7v160006INS_12__hash_tableINS_17__hash_value_typeINS_12basic_stringIcNS_11char_traitsIcEENS_9allocatorIcEEEE3PSKEENS_22__unordered_map_hasherIS8_SA_NS_4hashIS8_EENS_8equal_toIS8_EELb1EEENS_21__unordered_map_equalIS8_SA_SF_SD_Lb1EEENS6_ISA_EEEEEEvPT_, symObjAddr: 0x1BD1C, symBinAddr: 0x10001D404, symSize: 0x10 }
  - { offsetInCU: 0x2370F, offset: 0x2370F, size: 0x8, addend: 0x0, symName: __ZNSt3__1neB7v160006ERKNS_21__hash_const_iteratorIPNS_11__hash_nodeINS_17__hash_value_typeI3PSKNS_12basic_stringIcNS_11char_traitsIcEENS_9allocatorIcEEEEEEPvEEEESG_, symObjAddr: 0x1C180, symBinAddr: 0x10001D868, symSize: 0x34 }
  - { offsetInCU: 0x2374D, offset: 0x2374D, size: 0x8, addend: 0x0, symName: __ZNSt3__1eqB7v160006ERKNS_21__hash_const_iteratorIPNS_11__hash_nodeINS_17__hash_value_typeI3PSKNS_12basic_stringIcNS_11char_traitsIcEENS_9allocatorIcEEEEEEPvEEEESG_, symObjAddr: 0x1C1B4, symBinAddr: 0x10001D89C, symSize: 0x30 }
  - { offsetInCU: 0x237EF, offset: 0x237EF, size: 0x8, addend: 0x0, symName: __ZNSt3__1neB7v160006ERKNS_21__hash_const_iteratorIPNS_11__hash_nodeINS_17__hash_value_typeINS_12basic_stringIcNS_11char_traitsIcEENS_9allocatorIcEEEE3PSKEEPvEEEESG_, symObjAddr: 0x1C59C, symBinAddr: 0x10001DC84, symSize: 0x34 }
  - { offsetInCU: 0x2382D, offset: 0x2382D, size: 0x8, addend: 0x0, symName: __ZNSt3__1eqB7v160006ERKNS_21__hash_const_iteratorIPNS_11__hash_nodeINS_17__hash_value_typeINS_12basic_stringIcNS_11char_traitsIcEENS_9allocatorIcEEEE3PSKEEPvEEEESG_, symObjAddr: 0x1C5D0, symBinAddr: 0x10001DCB8, symSize: 0x30 }
  - { offsetInCU: 0x24164, offset: 0x24164, size: 0x8, addend: 0x0, symName: __ZSt28__throw_bad_array_new_lengthB7v160006v, symObjAddr: 0x7110, symBinAddr: 0x1000087F8, symSize: 0x34 }
  - { offsetInCU: 0x24B48, offset: 0x24B48, size: 0x8, addend: 0x0, symName: __ZL11stringToPSK, symObjAddr: 0x11FDA0, symBinAddr: 0x100028120, symSize: 0x0 }
  - { offsetInCU: 0x250C2, offset: 0x250C2, size: 0x8, addend: 0x0, symName: _PSObjectCount, symObjAddr: 0x11FCA4, symBinAddr: 0x100028024, symSize: 0x0 }
  - { offsetInCU: 0x250E9, offset: 0x250E9, size: 0x8, addend: 0x0, symName: _Parameters, symObjAddr: 0x11FCA8, symBinAddr: 0x100028028, symSize: 0x0 }
  - { offsetInCU: 0x25D27, offset: 0x25D27, size: 0x8, addend: 0x0, symName: __Z17getStaticSinTablev, symObjAddr: 0x14CC, symBinAddr: 0x100002BB4, symSize: 0xA8 }
  - { offsetInCU: 0x25D51, offset: 0x25D51, size: 0x8, addend: 0x0, symName: __ZZ17getStaticSinTablevE8sinTable, symObjAddr: 0x11FDC8, symBinAddr: 0x100028148, symSize: 0x0 }
  - { offsetInCU: 0x25D67, offset: 0x25D67, size: 0x8, addend: 0x0, symName: __ZZ17getStaticSinTablevE11initialized, symObjAddr: 0x120908, symBinAddr: 0x100028C88, symSize: 0x0 }
  - { offsetInCU: 0x25DEC, offset: 0x25DEC, size: 0x8, addend: 0x0, symName: __Z20createStaticLogTableffi, symObjAddr: 0x1660, symBinAddr: 0x100002D48, symSize: 0xB0 }
  - { offsetInCU: 0x25E16, offset: 0x25E16, size: 0x8, addend: 0x0, symName: __ZZ20createStaticLogTableffiE8logTable, symObjAddr: 0x12090C, symBinAddr: 0x100028C8C, symSize: 0x0 }
  - { offsetInCU: 0x25EAA, offset: 0x25EAA, size: 0x8, addend: 0x0, symName: _Modules, symObjAddr: 0x11FCD8, symBinAddr: 0x100028058, symSize: 0x0 }
  - { offsetInCU: 0x26748, offset: 0x26748, size: 0x8, addend: 0x0, symName: _Controllers, symObjAddr: 0x11FD08, symBinAddr: 0x100028088, symSize: 0x0 }
  - { offsetInCU: 0x269C7, offset: 0x269C7, size: 0x8, addend: 0x0, symName: _Scenes, symObjAddr: 0x11FD38, symBinAddr: 0x1000280B8, symSize: 0x0 }
  - { offsetInCU: 0x26C98, offset: 0x26C98, size: 0x8, addend: 0x0, symName: _synth, symObjAddr: 0x11FD70, symBinAddr: 0x1000280F0, symSize: 0x0 }
  - { offsetInCU: 0x27432, offset: 0x27432, size: 0x8, addend: 0x0, symName: __ZNKSt3__16chrono15__duration_castINS0_8durationIxNS_5ratioILl1ELl1000000EEEEENS2_IxNS3_ILl1ELl1000EEEEES6_Lb1ELb0EEclB7v160006ERKS5_, symObjAddr: 0x3498, symBinAddr: 0x100004B80, symSize: 0x48 }
  - { offsetInCU: 0x27471, offset: 0x27471, size: 0x8, addend: 0x0, symName: __ZNKSt3__111__enum_hashI3PSKLb1EEclB7v160006ES1_, symObjAddr: 0x54C4, symBinAddr: 0x100006BAC, symSize: 0x2C }
  - { offsetInCU: 0x280D9, offset: 0x280D9, size: 0x8, addend: 0x0, symName: __ZNSt3__16vectorI9JSONValueNS_9allocatorIS1_EEE26__swap_out_circular_bufferERNS_14__split_bufferIS1_RS3_EE, symObjAddr: 0x118E0, symBinAddr: 0x100012FC8, symSize: 0x118 }
  - { offsetInCU: 0x2819C, offset: 0x2819C, size: 0x8, addend: 0x0, symName: __ZNKSt3__16chrono13__duration_ltINS0_8durationIxNS_5ratioILl1ELl1000EEEEENS2_IeNS3_ILl1ELl1EEEEEEclB7v160006ERKS5_RKS7_, symObjAddr: 0x16160, symBinAddr: 0x100017848, symSize: 0x78 }
  - { offsetInCU: 0x2821C, offset: 0x2821C, size: 0x8, addend: 0x0, symName: __ZNKSt3__16chrono15__duration_castINS0_8durationIeNS_5ratioILl1ELl1EEEEENS2_IeNS3_ILl1ELl1000EEEEENS3_ILl1000ELl1EEELb0ELb1EEclB7v160006ERKS5_, symObjAddr: 0x16400, symBinAddr: 0x100017AE8, symSize: 0x4C }
  - { offsetInCU: 0x2828B, offset: 0x2828B, size: 0x8, addend: 0x0, symName: __ZNKSt3__16chrono15__duration_castINS0_8durationIxNS_5ratioILl1ELl1000EEEEENS2_IxNS3_ILl1ELl1000000000EEEEENS3_ILl1000000ELl1EEELb0ELb1EEclB7v160006ERKS5_, symObjAddr: 0x16464, symBinAddr: 0x100017B4C, symSize: 0x4C }
  - { offsetInCU: 0x282D4, offset: 0x282D4, size: 0x8, addend: 0x0, symName: __ZNKSt3__16chrono13__duration_ltINS0_8durationIxNS_5ratioILl1ELl1000000000EEEEENS2_IxNS3_ILl1ELl1000EEEEEEclB7v160006ERKS5_RKS7_, symObjAddr: 0x16514, symBinAddr: 0x100017BFC, symSize: 0x6C }
  - { offsetInCU: 0x29AB0, offset: 0x29AB0, size: 0x8, addend: 0x0, symName: __Z7isspacei, symObjAddr: 0xA8D4, symBinAddr: 0x10000BFBC, symSize: 0x28 }
  - { offsetInCU: 0x2A2EF, offset: 0x2A2EF, size: 0x8, addend: 0x0, symName: __Z5delayjb, symObjAddr: 0x0, symBinAddr: 0x1000016E8, symSize: 0x90 }
  - { offsetInCU: 0x2A333, offset: 0x2A333, size: 0x8, addend: 0x0, symName: __Z6millisv, symObjAddr: 0x90, symBinAddr: 0x100001778, symSize: 0x4C }
  - { offsetInCU: 0x2A379, offset: 0x2A379, size: 0x8, addend: 0x0, symName: __ZNSt3__16chrono8durationIxNS_5ratioILl1ELl1000EEEEC1B7v160006IiEERKT_PNS_9enable_ifIXaasr14is_convertibleIS8_xEE5valueooL_ZNS_17integral_constantIbLb0EE5valueEEntsr23treat_as_floating_pointIS6_EE5valueEvE4typeE, symObjAddr: 0x198, symBinAddr: 0x100001880, symSize: 0x3C }
  - { offsetInCU: 0x2A3C6, offset: 0x2A3C6, size: 0x8, addend: 0x0, symName: __ZNKSt3__16chrono10time_pointINS0_12system_clockENS0_8durationIxNS_5ratioILl1ELl1000EEEEEE16time_since_epochB7v160006Ev, symObjAddr: 0x238, symBinAddr: 0x100001920, symSize: 0x20 }
  - { offsetInCU: 0x2A3EC, offset: 0x2A3EC, size: 0x8, addend: 0x0, symName: __ZNKSt3__16chrono8durationIxNS_5ratioILl1ELl1000EEEE5countB7v160006Ev, symObjAddr: 0x258, symBinAddr: 0x100001940, symSize: 0x18 }
  - { offsetInCU: 0x2A412, offset: 0x2A412, size: 0x8, addend: 0x0, symName: __ZN11SimpleTimerC1Ej, symObjAddr: 0x270, symBinAddr: 0x100001958, symSize: 0x34 }
  - { offsetInCU: 0x2A44A, offset: 0x2A44A, size: 0x8, addend: 0x0, symName: _main, symObjAddr: 0x2A4, symBinAddr: 0x10000198C, symSize: 0xA0 }
  - { offsetInCU: 0x2A464, offset: 0x2A464, size: 0x8, addend: 0x0, symName: __Z5setupv, symObjAddr: 0x344, symBinAddr: 0x100001A2C, symSize: 0x1C }
  - { offsetInCU: 0x2A47D, offset: 0x2A47D, size: 0x8, addend: 0x0, symName: __Z14pauseForReviewRKNSt3__112basic_stringIcNS_11char_traitsIcEENS_9allocatorIcEEEEj, symObjAddr: 0x360, symBinAddr: 0x100001A48, symSize: 0x4C }
  - { offsetInCU: 0x2A4B9, offset: 0x2A4B9, size: 0x8, addend: 0x0, symName: __ZNSt3__112basic_stringIcNS_11char_traitsIcEENS_9allocatorIcEEEC1B7v160006IDnEEPKc, symObjAddr: 0x3AC, symBinAddr: 0x100001A94, symSize: 0x34 }
  - { offsetInCU: 0x2A4F7, offset: 0x2A4F7, size: 0x8, addend: 0x0, symName: __ZN11SimpleTimer5startEj, symObjAddr: 0x3E0, symBinAddr: 0x100001AC8, symSize: 0x38 }
  - { offsetInCU: 0x2A52B, offset: 0x2A52B, size: 0x8, addend: 0x0, symName: __Z9beginLoopv, symObjAddr: 0x418, symBinAddr: 0x100001B00, symSize: 0xA0 }
  - { offsetInCU: 0x2A545, offset: 0x2A545, size: 0x8, addend: 0x0, symName: __Z7exitingv, symObjAddr: 0x4B8, symBinAddr: 0x100001BA0, symSize: 0x14 }
  - { offsetInCU: 0x2A55F, offset: 0x2A55F, size: 0x8, addend: 0x0, symName: __ZN11SimpleTimer8durationEj, symObjAddr: 0x4CC, symBinAddr: 0x100001BB4, symSize: 0x20 }
  - { offsetInCU: 0x2A593, offset: 0x2A593, size: 0x8, addend: 0x0, symName: __ZN11SimpleTimer5startEv, symObjAddr: 0x4EC, symBinAddr: 0x100001BD4, symSize: 0x38 }
  - { offsetInCU: 0x2A5B9, offset: 0x2A5B9, size: 0x8, addend: 0x0, symName: __ZN11SimpleTimer6updateEv, symObjAddr: 0x524, symBinAddr: 0x100001C0C, symSize: 0x9C }
  - { offsetInCU: 0x2A5FB, offset: 0x2A5FB, size: 0x8, addend: 0x0, symName: __Z4loopv, symObjAddr: 0x5C0, symBinAddr: 0x100001CA8, symSize: 0x44 }
  - { offsetInCU: 0x2A615, offset: 0x2A615, size: 0x8, addend: 0x0, symName: __ZNKSt3__112basic_stringIcNS_11char_traitsIcEENS_9allocatorIcEEE5c_strB7v160006Ev, symObjAddr: 0x604, symBinAddr: 0x100001CEC, symSize: 0x24 }
  - { offsetInCU: 0x2A63B, offset: 0x2A63B, size: 0x8, addend: 0x0, symName: __Z3maplllll, symObjAddr: 0x628, symBinAddr: 0x100001D10, symSize: 0xA0 }
  - { offsetInCU: 0x2A6BE, offset: 0x2A6BE, size: 0x8, addend: 0x0, symName: __ZNSt3__14pairIK3PSKNS_12basic_stringIcNS_11char_traitsIcEENS_9allocatorIcEEEEEC1B7v160006IS1_RA10_KcLPv0EEEOT_OT0_, symObjAddr: 0x6C8, symBinAddr: 0x100001DB0, symSize: 0x3C }
  - { offsetInCU: 0x2A735, offset: 0x2A735, size: 0x8, addend: 0x0, symName: __ZNSt3__14pairIK3PSKNS_12basic_stringIcNS_11char_traitsIcEENS_9allocatorIcEEEEEC1B7v160006IS1_RA9_KcLPv0EEEOT_OT0_, symObjAddr: 0x704, symBinAddr: 0x100001DEC, symSize: 0x3C }
  - { offsetInCU: 0x2A7AC, offset: 0x2A7AC, size: 0x8, addend: 0x0, symName: __ZNSt3__14pairIK3PSKNS_12basic_stringIcNS_11char_traitsIcEENS_9allocatorIcEEEEEC1B7v160006IS1_RA11_KcLPv0EEEOT_OT0_, symObjAddr: 0x740, symBinAddr: 0x100001E28, symSize: 0x3C }
  - { offsetInCU: 0x2A823, offset: 0x2A823, size: 0x8, addend: 0x0, symName: __ZNSt3__14pairIK3PSKNS_12basic_stringIcNS_11char_traitsIcEENS_9allocatorIcEEEEEC1B7v160006IS1_RA13_KcLPv0EEEOT_OT0_, symObjAddr: 0x77C, symBinAddr: 0x100001E64, symSize: 0x3C }
  - { offsetInCU: 0x2A89A, offset: 0x2A89A, size: 0x8, addend: 0x0, symName: __ZNSt3__14pairIK3PSKNS_12basic_stringIcNS_11char_traitsIcEENS_9allocatorIcEEEEEC1B7v160006IS1_RA18_KcLPv0EEEOT_OT0_, symObjAddr: 0x7B8, symBinAddr: 0x100001EA0, symSize: 0x3C }
  - { offsetInCU: 0x2A911, offset: 0x2A911, size: 0x8, addend: 0x0, symName: __ZNSt3__14pairIK3PSKNS_12basic_stringIcNS_11char_traitsIcEENS_9allocatorIcEEEEEC1B7v160006IS1_RA16_KcLPv0EEEOT_OT0_, symObjAddr: 0x7F4, symBinAddr: 0x100001EDC, symSize: 0x3C }
  - { offsetInCU: 0x2A988, offset: 0x2A988, size: 0x8, addend: 0x0, symName: __ZNSt3__14pairIK3PSKNS_12basic_stringIcNS_11char_traitsIcEENS_9allocatorIcEEEEEC1B7v160006IS1_RA17_KcLPv0EEEOT_OT0_, symObjAddr: 0x830, symBinAddr: 0x100001F18, symSize: 0x3C }
  - { offsetInCU: 0x2A9FF, offset: 0x2A9FF, size: 0x8, addend: 0x0, symName: __ZNSt3__14pairIK3PSKNS_12basic_stringIcNS_11char_traitsIcEENS_9allocatorIcEEEEEC1B7v160006IS1_RA19_KcLPv0EEEOT_OT0_, symObjAddr: 0x86C, symBinAddr: 0x100001F54, symSize: 0x3C }
  - { offsetInCU: 0x2AA76, offset: 0x2AA76, size: 0x8, addend: 0x0, symName: __ZNSt3__14pairIK3PSKNS_12basic_stringIcNS_11char_traitsIcEENS_9allocatorIcEEEEEC1B7v160006IS1_RA15_KcLPv0EEEOT_OT0_, symObjAddr: 0x8A8, symBinAddr: 0x100001F90, symSize: 0x3C }
  - { offsetInCU: 0x2AAED, offset: 0x2AAED, size: 0x8, addend: 0x0, symName: __ZNSt3__14pairIK3PSKNS_12basic_stringIcNS_11char_traitsIcEENS_9allocatorIcEEEEEC1B7v160006IS1_RA14_KcLPv0EEEOT_OT0_, symObjAddr: 0x8E4, symBinAddr: 0x100001FCC, symSize: 0x3C }
  - { offsetInCU: 0x2AB64, offset: 0x2AB64, size: 0x8, addend: 0x0, symName: __ZNSt3__14pairIK3PSKNS_12basic_stringIcNS_11char_traitsIcEENS_9allocatorIcEEEEEC1B7v160006IS1_RA21_KcLPv0EEEOT_OT0_, symObjAddr: 0x920, symBinAddr: 0x100002008, symSize: 0x3C }
  - { offsetInCU: 0x2ABC2, offset: 0x2ABC2, size: 0x8, addend: 0x0, symName: __ZNSt3__14pairIK3PSKNS_12basic_stringIcNS_11char_traitsIcEENS_9allocatorIcEEEEED1Ev, symObjAddr: 0x95C, symBinAddr: 0x100002044, symSize: 0x2C }
  - { offsetInCU: 0x2ABEE, offset: 0x2ABEE, size: 0x8, addend: 0x0, symName: __ZNSt3__113unordered_mapI3PSKNS_12basic_stringIcNS_11char_traitsIcEENS_9allocatorIcEEEENS_4hashIS1_EENS_8equal_toIS1_EENS5_INS_4pairIKS1_S7_EEEEEC1ESt16initializer_listISE_E, symObjAddr: 0x988, symBinAddr: 0x100002070, symSize: 0x3C }
  - { offsetInCU: 0x2AC29, offset: 0x2AC29, size: 0x8, addend: 0x0, symName: __ZNSt3__113unordered_mapI3PSKNS_12basic_stringIcNS_11char_traitsIcEENS_9allocatorIcEEEENS_4hashIS1_EENS_8equal_toIS1_EENS5_INS_4pairIKS1_S7_EEEEED1B7v160006Ev, symObjAddr: 0x9C4, symBinAddr: 0x1000020AC, symSize: 0x2C }
  - { offsetInCU: 0x2AC53, offset: 0x2AC53, size: 0x8, addend: 0x0, symName: __ZNSt3__14pairIKNS_12basic_stringIcNS_11char_traitsIcEENS_9allocatorIcEEEE3PSKEC1B7v160006IRA10_KcS8_LPv0EEEOT_OT0_, symObjAddr: 0x9F0, symBinAddr: 0x1000020D8, symSize: 0x3C }
  - { offsetInCU: 0x2ACB1, offset: 0x2ACB1, size: 0x8, addend: 0x0, symName: __ZNSt3__14pairIKNS_12basic_stringIcNS_11char_traitsIcEENS_9allocatorIcEEEE3PSKEC1B7v160006IRA9_KcS8_LPv0EEEOT_OT0_, symObjAddr: 0xA2C, symBinAddr: 0x100002114, symSize: 0x3C }
  - { offsetInCU: 0x2AD0F, offset: 0x2AD0F, size: 0x8, addend: 0x0, symName: __ZNSt3__14pairIKNS_12basic_stringIcNS_11char_traitsIcEENS_9allocatorIcEEEE3PSKEC1B7v160006IRA11_KcS8_LPv0EEEOT_OT0_, symObjAddr: 0xA68, symBinAddr: 0x100002150, symSize: 0x3C }
  - { offsetInCU: 0x2AD6D, offset: 0x2AD6D, size: 0x8, addend: 0x0, symName: __ZNSt3__14pairIKNS_12basic_stringIcNS_11char_traitsIcEENS_9allocatorIcEEEE3PSKEC1B7v160006IRA13_KcS8_LPv0EEEOT_OT0_, symObjAddr: 0xAA4, symBinAddr: 0x10000218C, symSize: 0x3C }
  - { offsetInCU: 0x2ADCB, offset: 0x2ADCB, size: 0x8, addend: 0x0, symName: __ZNSt3__14pairIKNS_12basic_stringIcNS_11char_traitsIcEENS_9allocatorIcEEEE3PSKEC1B7v160006IRA18_KcS8_LPv0EEEOT_OT0_, symObjAddr: 0xAE0, symBinAddr: 0x1000021C8, symSize: 0x3C }
  - { offsetInCU: 0x2AE29, offset: 0x2AE29, size: 0x8, addend: 0x0, symName: __ZNSt3__14pairIKNS_12basic_stringIcNS_11char_traitsIcEENS_9allocatorIcEEEE3PSKEC1B7v160006IRA16_KcS8_LPv0EEEOT_OT0_, symObjAddr: 0xB1C, symBinAddr: 0x100002204, symSize: 0x3C }
  - { offsetInCU: 0x2AE87, offset: 0x2AE87, size: 0x8, addend: 0x0, symName: __ZNSt3__14pairIKNS_12basic_stringIcNS_11char_traitsIcEENS_9allocatorIcEEEE3PSKEC1B7v160006IRA17_KcS8_LPv0EEEOT_OT0_, symObjAddr: 0xB58, symBinAddr: 0x100002240, symSize: 0x3C }
  - { offsetInCU: 0x2AEE5, offset: 0x2AEE5, size: 0x8, addend: 0x0, symName: __ZNSt3__14pairIKNS_12basic_stringIcNS_11char_traitsIcEENS_9allocatorIcEEEE3PSKEC1B7v160006IRA19_KcS8_LPv0EEEOT_OT0_, symObjAddr: 0xB94, symBinAddr: 0x10000227C, symSize: 0x3C }
  - { offsetInCU: 0x2AF43, offset: 0x2AF43, size: 0x8, addend: 0x0, symName: __ZNSt3__14pairIKNS_12basic_stringIcNS_11char_traitsIcEENS_9allocatorIcEEEE3PSKEC1B7v160006IRA15_KcS8_LPv0EEEOT_OT0_, symObjAddr: 0xBD0, symBinAddr: 0x1000022B8, symSize: 0x3C }
  - { offsetInCU: 0x2AFA1, offset: 0x2AFA1, size: 0x8, addend: 0x0, symName: __ZNSt3__14pairIKNS_12basic_stringIcNS_11char_traitsIcEENS_9allocatorIcEEEE3PSKEC1B7v160006IRA14_KcS8_LPv0EEEOT_OT0_, symObjAddr: 0xC0C, symBinAddr: 0x1000022F4, symSize: 0x3C }
  - { offsetInCU: 0x2AFFF, offset: 0x2AFFF, size: 0x8, addend: 0x0, symName: __ZNSt3__14pairIKNS_12basic_stringIcNS_11char_traitsIcEENS_9allocatorIcEEEE3PSKEC1B7v160006IRA21_KcS8_LPv0EEEOT_OT0_, symObjAddr: 0xC48, symBinAddr: 0x100002330, symSize: 0x3C }
  - { offsetInCU: 0x2B05D, offset: 0x2B05D, size: 0x8, addend: 0x0, symName: __ZNSt3__14pairIKNS_12basic_stringIcNS_11char_traitsIcEENS_9allocatorIcEEEE3PSKED1Ev, symObjAddr: 0xC84, symBinAddr: 0x10000236C, symSize: 0x2C }
  - { offsetInCU: 0x2B089, offset: 0x2B089, size: 0x8, addend: 0x0, symName: __ZNSt3__113unordered_mapINS_12basic_stringIcNS_11char_traitsIcEENS_9allocatorIcEEEE3PSKNS_4hashIS6_EENS_8equal_toIS6_EENS4_INS_4pairIKS6_S7_EEEEEC1ESt16initializer_listISE_E, symObjAddr: 0xCB0, symBinAddr: 0x100002398, symSize: 0x3C }
  - { offsetInCU: 0x2B0C4, offset: 0x2B0C4, size: 0x8, addend: 0x0, symName: __ZNSt3__113unordered_mapINS_12basic_stringIcNS_11char_traitsIcEENS_9allocatorIcEEEE3PSKNS_4hashIS6_EENS_8equal_toIS6_EENS4_INS_4pairIKS6_S7_EEEEED1B7v160006Ev, symObjAddr: 0xCEC, symBinAddr: 0x1000023D4, symSize: 0x2C }
  - { offsetInCU: 0x2B0ED, offset: 0x2B0ED, size: 0x8, addend: 0x0, symName: __Z9psk_tostrRK3PSK, symObjAddr: 0xD18, symBinAddr: 0x100002400, symSize: 0xE4 }
  - { offsetInCU: 0x2B12B, offset: 0x2B12B, size: 0x8, addend: 0x0, symName: __ZNKSt3__113unordered_mapI3PSKNS_12basic_stringIcNS_11char_traitsIcEENS_9allocatorIcEEEENS_4hashIS1_EENS_8equal_toIS1_EENS5_INS_4pairIKS1_S7_EEEEE4findB7v160006ERSD_, symObjAddr: 0xDFC, symBinAddr: 0x1000024E4, symSize: 0x40 }
  - { offsetInCU: 0x2B160, offset: 0x2B160, size: 0x8, addend: 0x0, symName: __ZNKSt3__113unordered_mapI3PSKNS_12basic_stringIcNS_11char_traitsIcEENS_9allocatorIcEEEENS_4hashIS1_EENS_8equal_toIS1_EENS5_INS_4pairIKS1_S7_EEEEE3endB7v160006Ev, symObjAddr: 0xE6C, symBinAddr: 0x100002554, symSize: 0x38 }
  - { offsetInCU: 0x2B186, offset: 0x2B186, size: 0x8, addend: 0x0, symName: __ZNKSt3__125__hash_map_const_iteratorINS_21__hash_const_iteratorIPNS_11__hash_nodeINS_17__hash_value_typeI3PSKNS_12basic_stringIcNS_11char_traitsIcEENS_9allocatorIcEEEEEEPvEEEEEptB7v160006Ev, symObjAddr: 0xEA4, symBinAddr: 0x10000258C, symSize: 0x2C }
  - { offsetInCU: 0x2B1AB, offset: 0x2B1AB, size: 0x8, addend: 0x0, symName: __Z9str_topskRKNSt3__112basic_stringIcNS_11char_traitsIcEENS_9allocatorIcEEEE, symObjAddr: 0xED0, symBinAddr: 0x1000025B8, symSize: 0x16C }
  - { offsetInCU: 0x2B1E9, offset: 0x2B1E9, size: 0x8, addend: 0x0, symName: __ZNKSt3__113unordered_mapINS_12basic_stringIcNS_11char_traitsIcEENS_9allocatorIcEEEE3PSKNS_4hashIS6_EENS_8equal_toIS6_EENS4_INS_4pairIKS6_S7_EEEEE4findB7v160006ERSD_, symObjAddr: 0x103C, symBinAddr: 0x100002724, symSize: 0x40 }
  - { offsetInCU: 0x2B21E, offset: 0x2B21E, size: 0x8, addend: 0x0, symName: __ZNKSt3__113unordered_mapINS_12basic_stringIcNS_11char_traitsIcEENS_9allocatorIcEEEE3PSKNS_4hashIS6_EENS_8equal_toIS6_EENS4_INS_4pairIKS6_S7_EEEEE3endB7v160006Ev, symObjAddr: 0x10AC, symBinAddr: 0x100002794, symSize: 0x38 }
  - { offsetInCU: 0x2B244, offset: 0x2B244, size: 0x8, addend: 0x0, symName: __ZNKSt3__125__hash_map_const_iteratorINS_21__hash_const_iteratorIPNS_11__hash_nodeINS_17__hash_value_typeINS_12basic_stringIcNS_11char_traitsIcEENS_9allocatorIcEEEE3PSKEEPvEEEEEptB7v160006Ev, symObjAddr: 0x10E4, symBinAddr: 0x1000027CC, symSize: 0x2C }
  - { offsetInCU: 0x2B26A, offset: 0x2B26A, size: 0x8, addend: 0x0, symName: __ZN18PSParameterManagerC1Ev, symObjAddr: 0x1150, symBinAddr: 0x100002838, symSize: 0x2C }
  - { offsetInCU: 0x2B294, offset: 0x2B294, size: 0x8, addend: 0x0, symName: __ZN18PSParameterManagerD1Ev, symObjAddr: 0x117C, symBinAddr: 0x100002864, symSize: 0x2C }
  - { offsetInCU: 0x2B2BE, offset: 0x2B2BE, size: 0x8, addend: 0x0, symName: __Z14initParametersv, symObjAddr: 0x11A8, symBinAddr: 0x100002890, symSize: 0x1C0 }
  - { offsetInCU: 0x2B2D8, offset: 0x2B2D8, size: 0x8, addend: 0x0, symName: __ZN18PSParameterManager3addERK3PSKRKNSt3__112basic_stringIcNS3_11char_traitsIcEENS3_9allocatorIcEEEE, symObjAddr: 0x1368, symBinAddr: 0x100002A50, symSize: 0xD8 }
  - { offsetInCU: 0x2B328, offset: 0x2B328, size: 0x8, addend: 0x0, symName: __ZN11PSParameter8setRangeEff, symObjAddr: 0x1440, symBinAddr: 0x100002B28, symSize: 0x6C }
  - { offsetInCU: 0x2B36A, offset: 0x2B36A, size: 0x8, addend: 0x0, symName: __ZN11PSParameter8setValueEf, symObjAddr: 0x14AC, symBinAddr: 0x100002B94, symSize: 0x20 }
  - { offsetInCU: 0x2B39D, offset: 0x2B39D, size: 0x8, addend: 0x0, symName: __Z8sinewaved, symObjAddr: 0x1574, symBinAddr: 0x100002C5C, symSize: 0xEC }
  - { offsetInCU: 0x2B40F, offset: 0x2B40F, size: 0x8, addend: 0x0, symName: __Z3logB7v160006f, symObjAddr: 0x1710, symBinAddr: 0x100002DF8, symSize: 0x24 }
  - { offsetInCU: 0x2B43D, offset: 0x2B43D, size: 0x8, addend: 0x0, symName: __Z14convertToAudioffffff, symObjAddr: 0x1734, symBinAddr: 0x100002E1C, symSize: 0xCC }
  - { offsetInCU: 0x2B4BD, offset: 0x2B4BD, size: 0x8, addend: 0x0, symName: __Z3powB7v160006ff, symObjAddr: 0x1858, symBinAddr: 0x100002F40, symSize: 0x2C }
  - { offsetInCU: 0x2B4FA, offset: 0x2B4FA, size: 0x8, addend: 0x0, symName: __Z13sineWavePointfffj, symObjAddr: 0x1884, symBinAddr: 0x100002F6C, symSize: 0x9C }
  - { offsetInCU: 0x2B57B, offset: 0x2B57B, size: 0x8, addend: 0x0, symName: __ZN15PSModuleManagerC1Ev, symObjAddr: 0x1920, symBinAddr: 0x100003008, symSize: 0x2C }
  - { offsetInCU: 0x2B5A7, offset: 0x2B5A7, size: 0x8, addend: 0x0, symName: __ZN15PSModuleManagerD1Ev, symObjAddr: 0x194C, symBinAddr: 0x100003034, symSize: 0x2C }
  - { offsetInCU: 0x2B5D1, offset: 0x2B5D1, size: 0x8, addend: 0x0, symName: __ZN19PSControllerManagerC1Ev, symObjAddr: 0x1978, symBinAddr: 0x100003060, symSize: 0x2C }
  - { offsetInCU: 0x2B5FB, offset: 0x2B5FB, size: 0x8, addend: 0x0, symName: __ZN19PSControllerManagerD1Ev, symObjAddr: 0x19A4, symBinAddr: 0x10000308C, symSize: 0x2C }
  - { offsetInCU: 0x2B625, offset: 0x2B625, size: 0x8, addend: 0x0, symName: __ZN14PSSceneManagerC1Ev, symObjAddr: 0x19D0, symBinAddr: 0x1000030B8, symSize: 0x2C }
  - { offsetInCU: 0x2B64F, offset: 0x2B64F, size: 0x8, addend: 0x0, symName: __ZN14PSSceneManagerD1Ev, symObjAddr: 0x19FC, symBinAddr: 0x1000030E4, symSize: 0x2C }
  - { offsetInCU: 0x2B678, offset: 0x2B678, size: 0x8, addend: 0x0, symName: __Z6printjRKNSt3__112basic_stringIcNS_11char_traitsIcEENS_9allocatorIcEEEERK9JSONValue, symObjAddr: 0x1A28, symBinAddr: 0x100003110, symSize: 0x60 }
  - { offsetInCU: 0x2B6AF, offset: 0x2B6AF, size: 0x8, addend: 0x0, symName: __ZNKSt3__13mapINS_12basic_stringIcNS_11char_traitsIcEENS_9allocatorIcEEEE9JSONValueNS_4lessIS6_EENS4_INS_4pairIKS6_S7_EEEEE2atERSB_, symObjAddr: 0x1A88, symBinAddr: 0x100003170, symSize: 0x68 }
  - { offsetInCU: 0x2B704, offset: 0x2B704, size: 0x8, addend: 0x0, symName: __ZN7PSSynthC1Ev, symObjAddr: 0x1AF0, symBinAddr: 0x1000031D8, symSize: 0x2C }
  - { offsetInCU: 0x2B72E, offset: 0x2B72E, size: 0x8, addend: 0x0, symName: __ZN7PSSynthD1Ev, symObjAddr: 0x1B1C, symBinAddr: 0x100003204, symSize: 0x2C }
  - { offsetInCU: 0x2B758, offset: 0x2B758, size: 0x8, addend: 0x0, symName: __ZN7PSSynth10initScenesEv, symObjAddr: 0x1B48, symBinAddr: 0x100003230, symSize: 0x1D4 }
  - { offsetInCU: 0x2B7EA, offset: 0x2B7EA, size: 0x8, addend: 0x0, symName: __ZN14PSSceneManager3addI15PSSceneEnvelopeEEPT_RK3PSKRKNSt3__112basic_stringIcNS7_11char_traitsIcEENS7_9allocatorIcEEEE, symObjAddr: 0x1D1C, symBinAddr: 0x100003404, symSize: 0xAC }
  - { offsetInCU: 0x2B849, offset: 0x2B849, size: 0x8, addend: 0x0, symName: __ZN7PSScene13refreshRateHzEh, symObjAddr: 0x1DC8, symBinAddr: 0x1000034B0, symSize: 0x4C }
  - { offsetInCU: 0x2B87D, offset: 0x2B87D, size: 0x8, addend: 0x0, symName: __ZN14PSSceneManager5sceneERK3PSK, symObjAddr: 0x1E14, symBinAddr: 0x1000034FC, symSize: 0x2C }
  - { offsetInCU: 0x2B8B1, offset: 0x2B8B1, size: 0x8, addend: 0x0, symName: __ZN7PSScene9addModuleEP8PSModule, symObjAddr: 0x1E40, symBinAddr: 0x100003528, symSize: 0x54 }
  - { offsetInCU: 0x2B8E5, offset: 0x2B8E5, size: 0x8, addend: 0x0, symName: __ZN18PSObjectCollection7getItemI8PSModuleEEPT_RK3PSK, symObjAddr: 0x1E94, symBinAddr: 0x10000357C, symSize: 0x88 }
  - { offsetInCU: 0x2B930, offset: 0x2B930, size: 0x8, addend: 0x0, symName: __ZN14PSSceneManager9setActiveERK3PSK, symObjAddr: 0x1F1C, symBinAddr: 0x100003604, symSize: 0x6C }
  - { offsetInCU: 0x2B964, offset: 0x2B964, size: 0x8, addend: 0x0, symName: __ZN7PSSynth10initialiseEv, symObjAddr: 0x1F88, symBinAddr: 0x100003670, symSize: 0x194 }
  - { offsetInCU: 0x2BA4A, offset: 0x2BA4A, size: 0x8, addend: 0x0, symName: __ZN8PSConfigC1EPKc, symObjAddr: 0x211C, symBinAddr: 0x100003804, symSize: 0x34 }
  - { offsetInCU: 0x2BA82, offset: 0x2BA82, size: 0x8, addend: 0x0, symName: __ZN8PSConfig11applyConfigEv, symObjAddr: 0x2150, symBinAddr: 0x100003838, symSize: 0x120 }
  - { offsetInCU: 0x2BAD8, offset: 0x2BAD8, size: 0x8, addend: 0x0, symName: __ZN7PSSynth11initModulesEv, symObjAddr: 0x2270, symBinAddr: 0x100003958, symSize: 0x18 }
  - { offsetInCU: 0x2BAED, offset: 0x2BAED, size: 0x8, addend: 0x0, symName: __ZN7PSSynth11printConfigEv, symObjAddr: 0x2288, symBinAddr: 0x100003970, symSize: 0x290 }
  - { offsetInCU: 0x2BB11, offset: 0x2BB11, size: 0x8, addend: 0x0, symName: __ZN19PSControllerManager10controllerERK3PSK, symObjAddr: 0x2518, symBinAddr: 0x100003C00, symSize: 0x2C }
  - { offsetInCU: 0x2BB45, offset: 0x2BB45, size: 0x8, addend: 0x0, symName: __ZN8PSConfigD1Ev, symObjAddr: 0x2544, symBinAddr: 0x100003C2C, symSize: 0x2C }
  - { offsetInCU: 0x2BCCD, offset: 0x2BCCD, size: 0x8, addend: 0x0, symName: __ZN13StringBuilderC1Ev, symObjAddr: 0x2570, symBinAddr: 0x100003C58, symSize: 0x2C }
  - { offsetInCU: 0x2BCF9, offset: 0x2BCF9, size: 0x8, addend: 0x0, symName: __ZN13StringBuilder3addERKNSt3__112basic_stringIcNS0_11char_traitsIcEENS0_9allocatorIcEEEE, symObjAddr: 0x259C, symBinAddr: 0x100003C84, symSize: 0x34 }
  - { offsetInCU: 0x2BD2D, offset: 0x2BD2D, size: 0x8, addend: 0x0, symName: __ZN13StringBuilder12startElementEv, symObjAddr: 0x25D0, symBinAddr: 0x100003CB8, symSize: 0x34 }
  - { offsetInCU: 0x2BD53, offset: 0x2BD53, size: 0x8, addend: 0x0, symName: __ZN19PSControllerManager9serializeEv, symObjAddr: 0x2604, symBinAddr: 0x100003CEC, symSize: 0x314 }
  - { offsetInCU: 0x2BDF0, offset: 0x2BDF0, size: 0x8, addend: 0x0, symName: __ZN18PSParameterManager9serializeEv, symObjAddr: 0x2918, symBinAddr: 0x100004000, symSize: 0x314 }
  - { offsetInCU: 0x2BE8D, offset: 0x2BE8D, size: 0x8, addend: 0x0, symName: __ZN13StringBuilder10endElementEv, symObjAddr: 0x2C2C, symBinAddr: 0x100004314, symSize: 0x34 }
  - { offsetInCU: 0x2BEB3, offset: 0x2BEB3, size: 0x8, addend: 0x0, symName: __ZN13StringBuilder8toStringEv, symObjAddr: 0x2C60, symBinAddr: 0x100004348, symSize: 0x2C }
  - { offsetInCU: 0x2BED9, offset: 0x2BED9, size: 0x8, addend: 0x0, symName: __ZN13StringBuilderD1Ev, symObjAddr: 0x2C8C, symBinAddr: 0x100004374, symSize: 0x2C }
  - { offsetInCU: 0x2BF05, offset: 0x2BF05, size: 0x8, addend: 0x0, symName: __ZN7PSSynth13initEnvelopesEv, symObjAddr: 0x2CB8, symBinAddr: 0x1000043A0, symSize: 0x5CC }
  - { offsetInCU: 0x2BF1A, offset: 0x2BF1A, size: 0x8, addend: 0x0, symName: __ZN7PSSynth8initLFOsEv, symObjAddr: 0x3284, symBinAddr: 0x10000496C, symSize: 0x4 }
  - { offsetInCU: 0x2BF2F, offset: 0x2BF2F, size: 0x8, addend: 0x0, symName: __ZN18PSObjectCollection7addItemI11PSMEnvelopeEEPT_S3_, symObjAddr: 0x3288, symBinAddr: 0x100004970, symSize: 0x70 }
  - { offsetInCU: 0x2BF88, offset: 0x2BF88, size: 0x8, addend: 0x0, symName: __ZN21PSMEnvelopeParametersC1E3PSKS0_S0_S0_S0_S0_, symObjAddr: 0x32F8, symBinAddr: 0x1000049E0, symSize: 0x5C }
  - { offsetInCU: 0x2C006, offset: 0x2C006, size: 0x8, addend: 0x0, symName: __ZN11PSMEnvelopeC1ERK3PSKNSt3__112basic_stringIcNS3_11char_traitsIcEENS3_9allocatorIcEEEERK21PSMEnvelopeParameters, symObjAddr: 0x3354, symBinAddr: 0x100004A3C, symSize: 0x44 }
  - { offsetInCU: 0x2C05B, offset: 0x2C05B, size: 0x8, addend: 0x0, symName: __ZN7PSSynth6updateEv, symObjAddr: 0x3398, symBinAddr: 0x100004A80, symSize: 0x34 }
  - { offsetInCU: 0x2C081, offset: 0x2C081, size: 0x8, addend: 0x0, symName: __ZNSt3__16chrono8durationIxNS_5ratioILl1ELl1000EEEEC2B7v160006IiEERKT_PNS_9enable_ifIXaasr14is_convertibleIS8_xEE5valueooL_ZNS_17integral_constantIbLb0EE5valueEEntsr23treat_as_floating_pointIS6_EE5valueEvE4typeE, symObjAddr: 0x33CC, symBinAddr: 0x100004AB4, symSize: 0x28 }
  - { offsetInCU: 0x2C0CE, offset: 0x2C0CE, size: 0x8, addend: 0x0, symName: __ZNKSt3__16chrono10time_pointINS0_12system_clockENS0_8durationIxNS_5ratioILl1ELl1000000EEEEEE16time_since_epochB7v160006Ev, symObjAddr: 0x3444, symBinAddr: 0x100004B2C, symSize: 0x20 }
  - { offsetInCU: 0x2C0F4, offset: 0x2C0F4, size: 0x8, addend: 0x0, symName: __ZNSt3__16chrono10time_pointINS0_12system_clockENS0_8durationIxNS_5ratioILl1ELl1000EEEEEEC1B7v160006ERKS6_, symObjAddr: 0x3464, symBinAddr: 0x100004B4C, symSize: 0x34 }
  - { offsetInCU: 0x2C12C, offset: 0x2C12C, size: 0x8, addend: 0x0, symName: __ZNKSt3__16chrono8durationIxNS_5ratioILl1ELl1000000EEEE5countB7v160006Ev, symObjAddr: 0x34E0, symBinAddr: 0x100004BC8, symSize: 0x18 }
  - { offsetInCU: 0x2C15D, offset: 0x2C15D, size: 0x8, addend: 0x0, symName: __ZNSt3__16chrono8durationIxNS_5ratioILl1ELl1000EEEEC1B7v160006IxEERKT_PNS_9enable_ifIXaasr14is_convertibleIS8_xEE5valueooL_ZNS_17integral_constantIbLb0EE5valueEEntsr23treat_as_floating_pointIS6_EE5valueEvE4typeE, symObjAddr: 0x34F8, symBinAddr: 0x100004BE0, symSize: 0x3C }
  - { offsetInCU: 0x2C1AA, offset: 0x2C1AA, size: 0x8, addend: 0x0, symName: __ZNSt3__16chrono8durationIxNS_5ratioILl1ELl1000EEEEC2B7v160006IxEERKT_PNS_9enable_ifIXaasr14is_convertibleIS8_xEE5valueooL_ZNS_17integral_constantIbLb0EE5valueEEntsr23treat_as_floating_pointIS6_EE5valueEvE4typeE, symObjAddr: 0x3534, symBinAddr: 0x100004C1C, symSize: 0x28 }
  - { offsetInCU: 0x2C1F7, offset: 0x2C1F7, size: 0x8, addend: 0x0, symName: __ZNSt3__16chrono10time_pointINS0_12system_clockENS0_8durationIxNS_5ratioILl1ELl1000EEEEEEC2B7v160006ERKS6_, symObjAddr: 0x355C, symBinAddr: 0x100004C44, symSize: 0x24 }
  - { offsetInCU: 0x2C22F, offset: 0x2C22F, size: 0x8, addend: 0x0, symName: __ZN11SimpleTimerC2Ej, symObjAddr: 0x3580, symBinAddr: 0x100004C68, symSize: 0x38 }
  - { offsetInCU: 0x2C267, offset: 0x2C267, size: 0x8, addend: 0x0, symName: __ZNSt3__14pairIK3PSKNS_12basic_stringIcNS_11char_traitsIcEENS_9allocatorIcEEEEEC2B7v160006IS1_RA10_KcLPv0EEEOT_OT0_, symObjAddr: 0x35B8, symBinAddr: 0x100004CA0, symSize: 0x48 }
  - { offsetInCU: 0x2C2C5, offset: 0x2C2C5, size: 0x8, addend: 0x0, symName: __ZNSt3__14pairIK3PSKNS_12basic_stringIcNS_11char_traitsIcEENS_9allocatorIcEEEEEC2B7v160006IS1_RA9_KcLPv0EEEOT_OT0_, symObjAddr: 0x3600, symBinAddr: 0x100004CE8, symSize: 0x48 }
  - { offsetInCU: 0x2C323, offset: 0x2C323, size: 0x8, addend: 0x0, symName: __ZNSt3__14pairIK3PSKNS_12basic_stringIcNS_11char_traitsIcEENS_9allocatorIcEEEEEC2B7v160006IS1_RA11_KcLPv0EEEOT_OT0_, symObjAddr: 0x3648, symBinAddr: 0x100004D30, symSize: 0x48 }
  - { offsetInCU: 0x2C381, offset: 0x2C381, size: 0x8, addend: 0x0, symName: __ZNSt3__14pairIK3PSKNS_12basic_stringIcNS_11char_traitsIcEENS_9allocatorIcEEEEEC2B7v160006IS1_RA13_KcLPv0EEEOT_OT0_, symObjAddr: 0x3690, symBinAddr: 0x100004D78, symSize: 0x48 }
  - { offsetInCU: 0x2C3DF, offset: 0x2C3DF, size: 0x8, addend: 0x0, symName: __ZNSt3__14pairIK3PSKNS_12basic_stringIcNS_11char_traitsIcEENS_9allocatorIcEEEEEC2B7v160006IS1_RA18_KcLPv0EEEOT_OT0_, symObjAddr: 0x36D8, symBinAddr: 0x100004DC0, symSize: 0x48 }
  - { offsetInCU: 0x2C43D, offset: 0x2C43D, size: 0x8, addend: 0x0, symName: __ZNSt3__14pairIK3PSKNS_12basic_stringIcNS_11char_traitsIcEENS_9allocatorIcEEEEEC2B7v160006IS1_RA16_KcLPv0EEEOT_OT0_, symObjAddr: 0x3720, symBinAddr: 0x100004E08, symSize: 0x48 }
  - { offsetInCU: 0x2C49B, offset: 0x2C49B, size: 0x8, addend: 0x0, symName: __ZNSt3__14pairIK3PSKNS_12basic_stringIcNS_11char_traitsIcEENS_9allocatorIcEEEEEC2B7v160006IS1_RA17_KcLPv0EEEOT_OT0_, symObjAddr: 0x3768, symBinAddr: 0x100004E50, symSize: 0x48 }
  - { offsetInCU: 0x2C4F9, offset: 0x2C4F9, size: 0x8, addend: 0x0, symName: __ZNSt3__14pairIK3PSKNS_12basic_stringIcNS_11char_traitsIcEENS_9allocatorIcEEEEEC2B7v160006IS1_RA19_KcLPv0EEEOT_OT0_, symObjAddr: 0x37B0, symBinAddr: 0x100004E98, symSize: 0x48 }
  - { offsetInCU: 0x2C557, offset: 0x2C557, size: 0x8, addend: 0x0, symName: __ZNSt3__14pairIK3PSKNS_12basic_stringIcNS_11char_traitsIcEENS_9allocatorIcEEEEEC2B7v160006IS1_RA15_KcLPv0EEEOT_OT0_, symObjAddr: 0x37F8, symBinAddr: 0x100004EE0, symSize: 0x48 }
  - { offsetInCU: 0x2C5B5, offset: 0x2C5B5, size: 0x8, addend: 0x0, symName: __ZNSt3__14pairIK3PSKNS_12basic_stringIcNS_11char_traitsIcEENS_9allocatorIcEEEEEC2B7v160006IS1_RA14_KcLPv0EEEOT_OT0_, symObjAddr: 0x3840, symBinAddr: 0x100004F28, symSize: 0x48 }
  - { offsetInCU: 0x2C613, offset: 0x2C613, size: 0x8, addend: 0x0, symName: __ZNSt3__14pairIK3PSKNS_12basic_stringIcNS_11char_traitsIcEENS_9allocatorIcEEEEEC2B7v160006IS1_RA21_KcLPv0EEEOT_OT0_, symObjAddr: 0x3888, symBinAddr: 0x100004F70, symSize: 0x48 }
  - { offsetInCU: 0x2C671, offset: 0x2C671, size: 0x8, addend: 0x0, symName: __ZNSt3__14pairIK3PSKNS_12basic_stringIcNS_11char_traitsIcEENS_9allocatorIcEEEEED2Ev, symObjAddr: 0x38D0, symBinAddr: 0x100004FB8, symSize: 0x30 }
  - { offsetInCU: 0x2C69D, offset: 0x2C69D, size: 0x8, addend: 0x0, symName: __ZNSt3__14pairIKNS_12basic_stringIcNS_11char_traitsIcEENS_9allocatorIcEEEE3PSKEC2B7v160006IRA10_KcS8_LPv0EEEOT_OT0_, symObjAddr: 0x3900, symBinAddr: 0x100004FE8, symSize: 0x44 }
  - { offsetInCU: 0x2C6FB, offset: 0x2C6FB, size: 0x8, addend: 0x0, symName: __ZNSt3__14pairIKNS_12basic_stringIcNS_11char_traitsIcEENS_9allocatorIcEEEE3PSKEC2B7v160006IRA9_KcS8_LPv0EEEOT_OT0_, symObjAddr: 0x3944, symBinAddr: 0x10000502C, symSize: 0x44 }
  - { offsetInCU: 0x2C759, offset: 0x2C759, size: 0x8, addend: 0x0, symName: __ZNSt3__14pairIKNS_12basic_stringIcNS_11char_traitsIcEENS_9allocatorIcEEEE3PSKEC2B7v160006IRA11_KcS8_LPv0EEEOT_OT0_, symObjAddr: 0x3988, symBinAddr: 0x100005070, symSize: 0x44 }
  - { offsetInCU: 0x2C7B7, offset: 0x2C7B7, size: 0x8, addend: 0x0, symName: __ZNSt3__14pairIKNS_12basic_stringIcNS_11char_traitsIcEENS_9allocatorIcEEEE3PSKEC2B7v160006IRA13_KcS8_LPv0EEEOT_OT0_, symObjAddr: 0x39CC, symBinAddr: 0x1000050B4, symSize: 0x44 }
  - { offsetInCU: 0x2C815, offset: 0x2C815, size: 0x8, addend: 0x0, symName: __ZNSt3__14pairIKNS_12basic_stringIcNS_11char_traitsIcEENS_9allocatorIcEEEE3PSKEC2B7v160006IRA18_KcS8_LPv0EEEOT_OT0_, symObjAddr: 0x3A10, symBinAddr: 0x1000050F8, symSize: 0x44 }
  - { offsetInCU: 0x2C873, offset: 0x2C873, size: 0x8, addend: 0x0, symName: __ZNSt3__14pairIKNS_12basic_stringIcNS_11char_traitsIcEENS_9allocatorIcEEEE3PSKEC2B7v160006IRA16_KcS8_LPv0EEEOT_OT0_, symObjAddr: 0x3A54, symBinAddr: 0x10000513C, symSize: 0x44 }
  - { offsetInCU: 0x2C8D1, offset: 0x2C8D1, size: 0x8, addend: 0x0, symName: __ZNSt3__14pairIKNS_12basic_stringIcNS_11char_traitsIcEENS_9allocatorIcEEEE3PSKEC2B7v160006IRA17_KcS8_LPv0EEEOT_OT0_, symObjAddr: 0x3A98, symBinAddr: 0x100005180, symSize: 0x44 }
  - { offsetInCU: 0x2C92F, offset: 0x2C92F, size: 0x8, addend: 0x0, symName: __ZNSt3__14pairIKNS_12basic_stringIcNS_11char_traitsIcEENS_9allocatorIcEEEE3PSKEC2B7v160006IRA19_KcS8_LPv0EEEOT_OT0_, symObjAddr: 0x3ADC, symBinAddr: 0x1000051C4, symSize: 0x44 }
  - { offsetInCU: 0x2C98D, offset: 0x2C98D, size: 0x8, addend: 0x0, symName: __ZNSt3__14pairIKNS_12basic_stringIcNS_11char_traitsIcEENS_9allocatorIcEEEE3PSKEC2B7v160006IRA15_KcS8_LPv0EEEOT_OT0_, symObjAddr: 0x3B20, symBinAddr: 0x100005208, symSize: 0x44 }
  - { offsetInCU: 0x2C9EB, offset: 0x2C9EB, size: 0x8, addend: 0x0, symName: __ZNSt3__14pairIKNS_12basic_stringIcNS_11char_traitsIcEENS_9allocatorIcEEEE3PSKEC2B7v160006IRA14_KcS8_LPv0EEEOT_OT0_, symObjAddr: 0x3B64, symBinAddr: 0x10000524C, symSize: 0x44 }
  - { offsetInCU: 0x2CA49, offset: 0x2CA49, size: 0x8, addend: 0x0, symName: __ZNSt3__14pairIKNS_12basic_stringIcNS_11char_traitsIcEENS_9allocatorIcEEEE3PSKEC2B7v160006IRA21_KcS8_LPv0EEEOT_OT0_, symObjAddr: 0x3BA8, symBinAddr: 0x100005290, symSize: 0x44 }
  - { offsetInCU: 0x2CAA7, offset: 0x2CAA7, size: 0x8, addend: 0x0, symName: __ZNSt3__14pairIKNS_12basic_stringIcNS_11char_traitsIcEENS_9allocatorIcEEEE3PSKED2Ev, symObjAddr: 0x3BEC, symBinAddr: 0x1000052D4, symSize: 0x2C }
  - { offsetInCU: 0x2CAD3, offset: 0x2CAD3, size: 0x8, addend: 0x0, symName: __ZN18PSParameterManagerC2Ev, symObjAddr: 0x3C18, symBinAddr: 0x100005300, symSize: 0x44 }
  - { offsetInCU: 0x2CAFD, offset: 0x2CAFD, size: 0x8, addend: 0x0, symName: __ZN18PSObjectCollectionC2Ev, symObjAddr: 0x3C5C, symBinAddr: 0x100005344, symSize: 0x40 }
  - { offsetInCU: 0x2CB29, offset: 0x2CB29, size: 0x8, addend: 0x0, symName: __ZN18PSParameterManagerD0Ev, symObjAddr: 0x3C9C, symBinAddr: 0x100005384, symSize: 0x30 }
  - { offsetInCU: 0x2CB53, offset: 0x2CB53, size: 0x8, addend: 0x0, symName: __ZN18PSObjectCollection6existsERK3PSK, symObjAddr: 0x3CCC, symBinAddr: 0x1000053B4, symSize: 0x38 }
  - { offsetInCU: 0x2CB87, offset: 0x2CB87, size: 0x8, addend: 0x0, symName: __ZN18PSParameterManager6updateEv, symObjAddr: 0x3D04, symBinAddr: 0x1000053EC, symSize: 0x28 }
  - { offsetInCU: 0x2CBAD, offset: 0x2CBAD, size: 0x8, addend: 0x0, symName: __ZNSt3__113unordered_mapI3PSKP8PSObjectNS_4hashIS1_EENS_8equal_toIS1_EENS_9allocatorINS_4pairIKS1_S3_EEEEEC1B7v160006Ev, symObjAddr: 0x3D2C, symBinAddr: 0x100005414, symSize: 0x2C }
  - { offsetInCU: 0x2CBD7, offset: 0x2CBD7, size: 0x8, addend: 0x0, symName: __ZN18PSObjectCollectionD1Ev, symObjAddr: 0x3D58, symBinAddr: 0x100005440, symSize: 0x2C }
  - { offsetInCU: 0x2CC01, offset: 0x2CC01, size: 0x8, addend: 0x0, symName: __ZN18PSObjectCollectionD0Ev, symObjAddr: 0x3D84, symBinAddr: 0x10000546C, symSize: 0x30 }
  - { offsetInCU: 0x2CC2B, offset: 0x2CC2B, size: 0x8, addend: 0x0, symName: __ZN18PSObjectCollection6updateEv, symObjAddr: 0x3DB4, symBinAddr: 0x10000549C, symSize: 0xB4 }
  - { offsetInCU: 0x2CCB0, offset: 0x2CCB0, size: 0x8, addend: 0x0, symName: __ZNSt3__113unordered_mapI3PSKP8PSObjectNS_4hashIS1_EENS_8equal_toIS1_EENS_9allocatorINS_4pairIKS1_S3_EEEEEC2B7v160006Ev, symObjAddr: 0x3E68, symBinAddr: 0x100005550, symSize: 0x3C }
  - { offsetInCU: 0x2CCDA, offset: 0x2CCDA, size: 0x8, addend: 0x0, symName: __ZNSt3__112__hash_tableINS_17__hash_value_typeI3PSKP8PSObjectEENS_22__unordered_map_hasherIS2_S5_NS_4hashIS2_EENS_8equal_toIS2_EELb1EEENS_21__unordered_map_equalIS2_S5_SA_S8_Lb1EEENS_9allocatorIS5_EEEC1Ev, symObjAddr: 0x3EA4, symBinAddr: 0x10000558C, symSize: 0x2C }
  - { offsetInCU: 0x2CD06, offset: 0x2CD06, size: 0x8, addend: 0x0, symName: __ZNSt3__112__hash_tableINS_17__hash_value_typeI3PSKP8PSObjectEENS_22__unordered_map_hasherIS2_S5_NS_4hashIS2_EENS_8equal_toIS2_EELb1EEENS_21__unordered_map_equalIS2_S5_SA_S8_Lb1EEENS_9allocatorIS5_EEEC2Ev, symObjAddr: 0x3EE0, symBinAddr: 0x1000055C8, symSize: 0x7C }
  - { offsetInCU: 0x2CD32, offset: 0x2CD32, size: 0x8, addend: 0x0, symName: __ZNSt3__110unique_ptrIA_PNS_16__hash_node_baseIPNS_11__hash_nodeINS_17__hash_value_typeI3PSKP8PSObjectEEPvEEEENS_25__bucket_list_deallocatorINS_9allocatorISC_EEEEEC1B7v160006ILb1EvEEv, symObjAddr: 0x3F5C, symBinAddr: 0x100005644, symSize: 0x2C }
  - { offsetInCU: 0x2CD67, offset: 0x2CD67, size: 0x8, addend: 0x0, symName: __ZNSt3__117__compressed_pairINS_16__hash_node_baseIPNS_11__hash_nodeINS_17__hash_value_typeI3PSKP8PSObjectEEPvEEEENS_9allocatorIS9_EEEC1B7v160006ILb1EvEEv, symObjAddr: 0x3F88, symBinAddr: 0x100005670, symSize: 0x2C }
  - { offsetInCU: 0x2CDA8, offset: 0x2CDA8, size: 0x8, addend: 0x0, symName: __ZNSt3__117__compressed_pairImNS_22__unordered_map_hasherI3PSKNS_17__hash_value_typeIS2_P8PSObjectEENS_4hashIS2_EENS_8equal_toIS2_EELb1EEEEC1B7v160006IiNS_18__default_init_tagEEEOT_OT0_, symObjAddr: 0x3FB4, symBinAddr: 0x10000569C, symSize: 0x3C }
  - { offsetInCU: 0x2CE06, offset: 0x2CE06, size: 0x8, addend: 0x0, symName: __ZNSt3__117__compressed_pairIfNS_21__unordered_map_equalI3PSKNS_17__hash_value_typeIS2_P8PSObjectEENS_8equal_toIS2_EENS_4hashIS2_EELb1EEEEC1B7v160006IfNS_18__default_init_tagEEEOT_OT0_, symObjAddr: 0x3FF0, symBinAddr: 0x1000056D8, symSize: 0x3C }
  - { offsetInCU: 0x2CE5E, offset: 0x2CE5E, size: 0x8, addend: 0x0, symName: __ZNSt3__110unique_ptrIA_PNS_16__hash_node_baseIPNS_11__hash_nodeINS_17__hash_value_typeI3PSKP8PSObjectEEPvEEEENS_25__bucket_list_deallocatorINS_9allocatorISC_EEEEEC2B7v160006ILb1EvEEv, symObjAddr: 0x402C, symBinAddr: 0x100005714, symSize: 0x3C }
  - { offsetInCU: 0x2CE99, offset: 0x2CE99, size: 0x8, addend: 0x0, symName: __ZNSt3__117__compressed_pairIPPNS_16__hash_node_baseIPNS_11__hash_nodeINS_17__hash_value_typeI3PSKP8PSObjectEEPvEEEENS_25__bucket_list_deallocatorINS_9allocatorISC_EEEEEC1B7v160006INS_16__value_init_tagESK_EEOT_OT0_, symObjAddr: 0x4068, symBinAddr: 0x100005750, symSize: 0x3C }
  - { offsetInCU: 0x2CEF1, offset: 0x2CEF1, size: 0x8, addend: 0x0, symName: __ZNSt3__117__compressed_pairIPPNS_16__hash_node_baseIPNS_11__hash_nodeINS_17__hash_value_typeI3PSKP8PSObjectEEPvEEEENS_25__bucket_list_deallocatorINS_9allocatorISC_EEEEEC2B7v160006INS_16__value_init_tagESK_EEOT_OT0_, symObjAddr: 0x40A4, symBinAddr: 0x10000578C, symSize: 0x40 }
  - { offsetInCU: 0x2CF49, offset: 0x2CF49, size: 0x8, addend: 0x0, symName: __ZNSt3__122__compressed_pair_elemIPPNS_16__hash_node_baseIPNS_11__hash_nodeINS_17__hash_value_typeI3PSKP8PSObjectEEPvEEEELi0ELb0EEC2B7v160006ENS_16__value_init_tagE, symObjAddr: 0x40E4, symBinAddr: 0x1000057CC, symSize: 0x18 }
  - { offsetInCU: 0x2CF7E, offset: 0x2CF7E, size: 0x8, addend: 0x0, symName: __ZNSt3__122__compressed_pair_elemINS_25__bucket_list_deallocatorINS_9allocatorIPNS_16__hash_node_baseIPNS_11__hash_nodeINS_17__hash_value_typeI3PSKP8PSObjectEEPvEEEEEEEELi1ELb0EEC2B7v160006ENS_16__value_init_tagE, symObjAddr: 0x40FC, symBinAddr: 0x1000057E4, symSize: 0x2C }
  - { offsetInCU: 0x2CFB3, offset: 0x2CFB3, size: 0x8, addend: 0x0, symName: __ZNSt3__125__bucket_list_deallocatorINS_9allocatorIPNS_16__hash_node_baseIPNS_11__hash_nodeINS_17__hash_value_typeI3PSKP8PSObjectEEPvEEEEEEEC1B7v160006Ev, symObjAddr: 0x4128, symBinAddr: 0x100005810, symSize: 0x2C }
  - { offsetInCU: 0x2CFDD, offset: 0x2CFDD, size: 0x8, addend: 0x0, symName: __ZNSt3__125__bucket_list_deallocatorINS_9allocatorIPNS_16__hash_node_baseIPNS_11__hash_nodeINS_17__hash_value_typeI3PSKP8PSObjectEEPvEEEEEEEC2B7v160006Ev, symObjAddr: 0x4154, symBinAddr: 0x10000583C, symSize: 0x40 }
  - { offsetInCU: 0x2D007, offset: 0x2D007, size: 0x8, addend: 0x0, symName: __ZNSt3__117__compressed_pairImNS_9allocatorIPNS_16__hash_node_baseIPNS_11__hash_nodeINS_17__hash_value_typeI3PSKP8PSObjectEEPvEEEEEEEC1B7v160006IiNS_18__default_init_tagEEEOT_OT0_, symObjAddr: 0x4194, symBinAddr: 0x10000587C, symSize: 0x3C }
  - { offsetInCU: 0x2D05F, offset: 0x2D05F, size: 0x8, addend: 0x0, symName: __ZNSt3__117__compressed_pairImNS_9allocatorIPNS_16__hash_node_baseIPNS_11__hash_nodeINS_17__hash_value_typeI3PSKP8PSObjectEEPvEEEEEEEC2B7v160006IiNS_18__default_init_tagEEEOT_OT0_, symObjAddr: 0x41D0, symBinAddr: 0x1000058B8, symSize: 0x40 }
  - { offsetInCU: 0x2D0B7, offset: 0x2D0B7, size: 0x8, addend: 0x0, symName: __ZNSt3__122__compressed_pair_elemImLi0ELb0EEC2B7v160006IivEEOT_, symObjAddr: 0x4210, symBinAddr: 0x1000058F8, symSize: 0x24 }
  - { offsetInCU: 0x2D0F9, offset: 0x2D0F9, size: 0x8, addend: 0x0, symName: __ZNSt3__122__compressed_pair_elemINS_9allocatorIPNS_16__hash_node_baseIPNS_11__hash_nodeINS_17__hash_value_typeI3PSKP8PSObjectEEPvEEEEEELi1ELb1EEC2B7v160006ENS_18__default_init_tagE, symObjAddr: 0x4234, symBinAddr: 0x10000591C, symSize: 0x2C }
  - { offsetInCU: 0x2D12E, offset: 0x2D12E, size: 0x8, addend: 0x0, symName: __ZNSt3__19allocatorIPNS_16__hash_node_baseIPNS_11__hash_nodeINS_17__hash_value_typeI3PSKP8PSObjectEEPvEEEEEC2B7v160006Ev, symObjAddr: 0x4260, symBinAddr: 0x100005948, symSize: 0x2C }
  - { offsetInCU: 0x2D158, offset: 0x2D158, size: 0x8, addend: 0x0, symName: __ZNSt3__116__non_trivial_ifILb1ENS_9allocatorIPNS_16__hash_node_baseIPNS_11__hash_nodeINS_17__hash_value_typeI3PSKP8PSObjectEEPvEEEEEEEC2B7v160006Ev, symObjAddr: 0x428C, symBinAddr: 0x100005974, symSize: 0x14 }
  - { offsetInCU: 0x2D182, offset: 0x2D182, size: 0x8, addend: 0x0, symName: __ZNSt3__117__compressed_pairINS_16__hash_node_baseIPNS_11__hash_nodeINS_17__hash_value_typeI3PSKP8PSObjectEEPvEEEENS_9allocatorIS9_EEEC2B7v160006ILb1EvEEv, symObjAddr: 0x42A0, symBinAddr: 0x100005988, symSize: 0x34 }
  - { offsetInCU: 0x2D1B7, offset: 0x2D1B7, size: 0x8, addend: 0x0, symName: __ZNSt3__122__compressed_pair_elemINS_16__hash_node_baseIPNS_11__hash_nodeINS_17__hash_value_typeI3PSKP8PSObjectEEPvEEEELi0ELb0EEC2B7v160006ENS_16__value_init_tagE, symObjAddr: 0x42D4, symBinAddr: 0x1000059BC, symSize: 0x2C }
  - { offsetInCU: 0x2D1EC, offset: 0x2D1EC, size: 0x8, addend: 0x0, symName: __ZNSt3__122__compressed_pair_elemINS_9allocatorINS_11__hash_nodeINS_17__hash_value_typeI3PSKP8PSObjectEEPvEEEELi1ELb1EEC2B7v160006ENS_16__value_init_tagE, symObjAddr: 0x4300, symBinAddr: 0x1000059E8, symSize: 0x2C }
  - { offsetInCU: 0x2D221, offset: 0x2D221, size: 0x8, addend: 0x0, symName: __ZNSt3__116__hash_node_baseIPNS_11__hash_nodeINS_17__hash_value_typeI3PSKP8PSObjectEEPvEEEC1B7v160006Ev, symObjAddr: 0x432C, symBinAddr: 0x100005A14, symSize: 0x2C }
  - { offsetInCU: 0x2D24B, offset: 0x2D24B, size: 0x8, addend: 0x0, symName: __ZNSt3__116__hash_node_baseIPNS_11__hash_nodeINS_17__hash_value_typeI3PSKP8PSObjectEEPvEEEC2B7v160006Ev, symObjAddr: 0x4358, symBinAddr: 0x100005A40, symSize: 0x18 }
  - { offsetInCU: 0x2D275, offset: 0x2D275, size: 0x8, addend: 0x0, symName: __ZNSt3__19allocatorINS_11__hash_nodeINS_17__hash_value_typeI3PSKP8PSObjectEEPvEEEC2B7v160006Ev, symObjAddr: 0x4370, symBinAddr: 0x100005A58, symSize: 0x2C }
  - { offsetInCU: 0x2D29F, offset: 0x2D29F, size: 0x8, addend: 0x0, symName: __ZNSt3__116__non_trivial_ifILb1ENS_9allocatorINS_11__hash_nodeINS_17__hash_value_typeI3PSKP8PSObjectEEPvEEEEEC2B7v160006Ev, symObjAddr: 0x439C, symBinAddr: 0x100005A84, symSize: 0x14 }
  - { offsetInCU: 0x2D2C9, offset: 0x2D2C9, size: 0x8, addend: 0x0, symName: __ZNSt3__117__compressed_pairImNS_22__unordered_map_hasherI3PSKNS_17__hash_value_typeIS2_P8PSObjectEENS_4hashIS2_EENS_8equal_toIS2_EELb1EEEEC2B7v160006IiNS_18__default_init_tagEEEOT_OT0_, symObjAddr: 0x43B0, symBinAddr: 0x100005A98, symSize: 0x40 }
  - { offsetInCU: 0x2D321, offset: 0x2D321, size: 0x8, addend: 0x0, symName: __ZNSt3__122__compressed_pair_elemINS_22__unordered_map_hasherI3PSKNS_17__hash_value_typeIS2_P8PSObjectEENS_4hashIS2_EENS_8equal_toIS2_EELb1EEELi1ELb1EEC2B7v160006ENS_18__default_init_tagE, symObjAddr: 0x43F0, symBinAddr: 0x100005AD8, symSize: 0x2C }
  - { offsetInCU: 0x2D356, offset: 0x2D356, size: 0x8, addend: 0x0, symName: __ZNSt3__122__unordered_map_hasherI3PSKNS_17__hash_value_typeIS1_P8PSObjectEENS_4hashIS1_EENS_8equal_toIS1_EELb1EEC2B7v160006Ev, symObjAddr: 0x441C, symBinAddr: 0x100005B04, symSize: 0x14 }
  - { offsetInCU: 0x2D380, offset: 0x2D380, size: 0x8, addend: 0x0, symName: __ZNSt3__117__compressed_pairIfNS_21__unordered_map_equalI3PSKNS_17__hash_value_typeIS2_P8PSObjectEENS_8equal_toIS2_EENS_4hashIS2_EELb1EEEEC2B7v160006IfNS_18__default_init_tagEEEOT_OT0_, symObjAddr: 0x4430, symBinAddr: 0x100005B18, symSize: 0x40 }
  - { offsetInCU: 0x2D3D8, offset: 0x2D3D8, size: 0x8, addend: 0x0, symName: __ZNSt3__122__compressed_pair_elemIfLi0ELb0EEC2B7v160006IfvEEOT_, symObjAddr: 0x4470, symBinAddr: 0x100005B58, symSize: 0x24 }
  - { offsetInCU: 0x2D41A, offset: 0x2D41A, size: 0x8, addend: 0x0, symName: __ZNSt3__122__compressed_pair_elemINS_21__unordered_map_equalI3PSKNS_17__hash_value_typeIS2_P8PSObjectEENS_8equal_toIS2_EENS_4hashIS2_EELb1EEELi1ELb1EEC2B7v160006ENS_18__default_init_tagE, symObjAddr: 0x4494, symBinAddr: 0x100005B7C, symSize: 0x2C }
  - { offsetInCU: 0x2D44F, offset: 0x2D44F, size: 0x8, addend: 0x0, symName: __ZNSt3__121__unordered_map_equalI3PSKNS_17__hash_value_typeIS1_P8PSObjectEENS_8equal_toIS1_EENS_4hashIS1_EELb1EEC2B7v160006Ev, symObjAddr: 0x44C0, symBinAddr: 0x100005BA8, symSize: 0x14 }
  - { offsetInCU: 0x2D479, offset: 0x2D479, size: 0x8, addend: 0x0, symName: __ZN18PSObjectCollectionD2Ev, symObjAddr: 0x44D4, symBinAddr: 0x100005BBC, symSize: 0x108 }
  - { offsetInCU: 0x2D4EC, offset: 0x2D4EC, size: 0x8, addend: 0x0, symName: __ZNSt3__113unordered_mapI3PSKP8PSObjectNS_4hashIS1_EENS_8equal_toIS1_EENS_9allocatorINS_4pairIKS1_S3_EEEEE5beginB7v160006Ev, symObjAddr: 0x45DC, symBinAddr: 0x100005CC4, symSize: 0x38 }
  - { offsetInCU: 0x2D512, offset: 0x2D512, size: 0x8, addend: 0x0, symName: __ZNSt3__113unordered_mapI3PSKP8PSObjectNS_4hashIS1_EENS_8equal_toIS1_EENS_9allocatorINS_4pairIKS1_S3_EEEEE3endB7v160006Ev, symObjAddr: 0x4614, symBinAddr: 0x100005CFC, symSize: 0x38 }
  - { offsetInCU: 0x2D538, offset: 0x2D538, size: 0x8, addend: 0x0, symName: __ZNKSt3__119__hash_map_iteratorINS_15__hash_iteratorIPNS_11__hash_nodeINS_17__hash_value_typeI3PSKP8PSObjectEEPvEEEEEdeB7v160006Ev, symObjAddr: 0x467C, symBinAddr: 0x100005D64, symSize: 0x28 }
  - { offsetInCU: 0x2D55E, offset: 0x2D55E, size: 0x8, addend: 0x0, symName: __ZNSt3__119__hash_map_iteratorINS_15__hash_iteratorIPNS_11__hash_nodeINS_17__hash_value_typeI3PSKP8PSObjectEEPvEEEEEppB7v160006Ev, symObjAddr: 0x46A4, symBinAddr: 0x100005D8C, symSize: 0x2C }
  - { offsetInCU: 0x2D584, offset: 0x2D584, size: 0x8, addend: 0x0, symName: __ZNSt3__113unordered_mapI3PSKP8PSObjectNS_4hashIS1_EENS_8equal_toIS1_EENS_9allocatorINS_4pairIKS1_S3_EEEEED1B7v160006Ev, symObjAddr: 0x46D0, symBinAddr: 0x100005DB8, symSize: 0x2C }
  - { offsetInCU: 0x2D5AE, offset: 0x2D5AE, size: 0x8, addend: 0x0, symName: __ZNSt3__112__hash_tableINS_17__hash_value_typeI3PSKP8PSObjectEENS_22__unordered_map_hasherIS2_S5_NS_4hashIS2_EENS_8equal_toIS2_EELb1EEENS_21__unordered_map_equalIS2_S5_SA_S8_Lb1EEENS_9allocatorIS5_EEE5beginEv, symObjAddr: 0x46FC, symBinAddr: 0x100005DE4, symSize: 0x40 }
  - { offsetInCU: 0x2D5D6, offset: 0x2D5D6, size: 0x8, addend: 0x0, symName: __ZNSt3__119__hash_map_iteratorINS_15__hash_iteratorIPNS_11__hash_nodeINS_17__hash_value_typeI3PSKP8PSObjectEEPvEEEEEC1B7v160006ESB_, symObjAddr: 0x473C, symBinAddr: 0x100005E24, symSize: 0x34 }
  - { offsetInCU: 0x2D60F, offset: 0x2D60F, size: 0x8, addend: 0x0, symName: __ZNSt3__117__compressed_pairINS_16__hash_node_baseIPNS_11__hash_nodeINS_17__hash_value_typeI3PSKP8PSObjectEEPvEEEENS_9allocatorIS9_EEE5firstB7v160006Ev, symObjAddr: 0x4770, symBinAddr: 0x100005E58, symSize: 0x24 }
  - { offsetInCU: 0x2D635, offset: 0x2D635, size: 0x8, addend: 0x0, symName: __ZNSt3__115__hash_iteratorIPNS_11__hash_nodeINS_17__hash_value_typeI3PSKP8PSObjectEEPvEEEC1B7v160006EPNS_16__hash_node_baseIS9_EEPKv, symObjAddr: 0x4794, symBinAddr: 0x100005E7C, symSize: 0x3C }
  - { offsetInCU: 0x2D67D, offset: 0x2D67D, size: 0x8, addend: 0x0, symName: __ZNSt3__122__compressed_pair_elemINS_16__hash_node_baseIPNS_11__hash_nodeINS_17__hash_value_typeI3PSKP8PSObjectEEPvEEEELi0ELb0EE5__getB7v160006Ev, symObjAddr: 0x47D0, symBinAddr: 0x100005EB8, symSize: 0x14 }
  - { offsetInCU: 0x2D6A3, offset: 0x2D6A3, size: 0x8, addend: 0x0, symName: __ZNSt3__115__hash_iteratorIPNS_11__hash_nodeINS_17__hash_value_typeI3PSKP8PSObjectEEPvEEEC2B7v160006EPNS_16__hash_node_baseIS9_EEPKv, symObjAddr: 0x47E4, symBinAddr: 0x100005ECC, symSize: 0x24 }
  - { offsetInCU: 0x2D6EB, offset: 0x2D6EB, size: 0x8, addend: 0x0, symName: __ZNSt3__119__hash_map_iteratorINS_15__hash_iteratorIPNS_11__hash_nodeINS_17__hash_value_typeI3PSKP8PSObjectEEPvEEEEEC2B7v160006ESB_, symObjAddr: 0x4808, symBinAddr: 0x100005EF0, symSize: 0x20 }
  - { offsetInCU: 0x2D724, offset: 0x2D724, size: 0x8, addend: 0x0, symName: __ZNSt3__112__hash_tableINS_17__hash_value_typeI3PSKP8PSObjectEENS_22__unordered_map_hasherIS2_S5_NS_4hashIS2_EENS_8equal_toIS2_EELb1EEENS_21__unordered_map_equalIS2_S5_SA_S8_Lb1EEENS_9allocatorIS5_EEE3endEv, symObjAddr: 0x4828, symBinAddr: 0x100005F10, symSize: 0x30 }
  - { offsetInCU: 0x2D74C, offset: 0x2D74C, size: 0x8, addend: 0x0, symName: __ZNKSt3__115__hash_iteratorIPNS_11__hash_nodeINS_17__hash_value_typeI3PSKP8PSObjectEEPvEEEptB7v160006Ev, symObjAddr: 0x48BC, symBinAddr: 0x100005FA4, symSize: 0x30 }
  - { offsetInCU: 0x2D772, offset: 0x2D772, size: 0x8, addend: 0x0, symName: __ZNSt3__117__hash_value_typeI3PSKP8PSObjectE11__get_valueB7v160006Ev, symObjAddr: 0x48EC, symBinAddr: 0x100005FD4, symSize: 0x24 }
  - { offsetInCU: 0x2D798, offset: 0x2D798, size: 0x8, addend: 0x0, symName: __ZNSt3__114pointer_traitsIPNS_17__hash_value_typeI3PSKP8PSObjectEEE10pointer_toB7v160006ERS5_, symObjAddr: 0x4910, symBinAddr: 0x100005FF8, symSize: 0x14 }
  - { offsetInCU: 0x2D7BB, offset: 0x2D7BB, size: 0x8, addend: 0x0, symName: __ZNSt3__116__hash_node_baseIPNS_11__hash_nodeINS_17__hash_value_typeI3PSKP8PSObjectEEPvEEE8__upcastB7v160006Ev, symObjAddr: 0x4924, symBinAddr: 0x10000600C, symSize: 0x24 }
  - { offsetInCU: 0x2D7E1, offset: 0x2D7E1, size: 0x8, addend: 0x0, symName: __ZNSt3__114pointer_traitsIPNS_16__hash_node_baseIPNS_11__hash_nodeINS_17__hash_value_typeI3PSKP8PSObjectEEPvEEEEE10pointer_toB7v160006ERSB_, symObjAddr: 0x4948, symBinAddr: 0x100006030, symSize: 0x14 }
  - { offsetInCU: 0x2D804, offset: 0x2D804, size: 0x8, addend: 0x0, symName: __ZNSt3__115__hash_iteratorIPNS_11__hash_nodeINS_17__hash_value_typeI3PSKP8PSObjectEEPvEEEppB7v160006Ev, symObjAddr: 0x4994, symBinAddr: 0x10000607C, symSize: 0x20 }
  - { offsetInCU: 0x2D82A, offset: 0x2D82A, size: 0x8, addend: 0x0, symName: __ZNSt3__113unordered_mapI3PSKP8PSObjectNS_4hashIS1_EENS_8equal_toIS1_EENS_9allocatorINS_4pairIKS1_S3_EEEEED2B7v160006Ev, symObjAddr: 0x49B4, symBinAddr: 0x10000609C, symSize: 0x2C }
  - { offsetInCU: 0x2D854, offset: 0x2D854, size: 0x8, addend: 0x0, symName: __ZNSt3__112__hash_tableINS_17__hash_value_typeI3PSKP8PSObjectEENS_22__unordered_map_hasherIS2_S5_NS_4hashIS2_EENS_8equal_toIS2_EELb1EEENS_21__unordered_map_equalIS2_S5_SA_S8_Lb1EEENS_9allocatorIS5_EEED1Ev, symObjAddr: 0x49E0, symBinAddr: 0x1000060C8, symSize: 0x2C }
  - { offsetInCU: 0x2D880, offset: 0x2D880, size: 0x8, addend: 0x0, symName: __ZNSt3__112__hash_tableINS_17__hash_value_typeI3PSKP8PSObjectEENS_22__unordered_map_hasherIS2_S5_NS_4hashIS2_EENS_8equal_toIS2_EELb1EEENS_21__unordered_map_equalIS2_S5_SA_S8_Lb1EEENS_9allocatorIS5_EEED2Ev, symObjAddr: 0x4A0C, symBinAddr: 0x1000060F4, symSize: 0x58 }
  - { offsetInCU: 0x2D8AC, offset: 0x2D8AC, size: 0x8, addend: 0x0, symName: __ZNSt3__112__hash_tableINS_17__hash_value_typeI3PSKP8PSObjectEENS_22__unordered_map_hasherIS2_S5_NS_4hashIS2_EENS_8equal_toIS2_EELb1EEENS_21__unordered_map_equalIS2_S5_SA_S8_Lb1EEENS_9allocatorIS5_EEE17__deallocate_nodeEPNS_16__hash_node_baseIPNS_11__hash_nodeIS5_PvEEEE, symObjAddr: 0x4A64, symBinAddr: 0x10000614C, symSize: 0xA8 }
  - { offsetInCU: 0x2D916, offset: 0x2D916, size: 0x8, addend: 0x0, symName: __ZNSt3__110unique_ptrIA_PNS_16__hash_node_baseIPNS_11__hash_nodeINS_17__hash_value_typeI3PSKP8PSObjectEEPvEEEENS_25__bucket_list_deallocatorINS_9allocatorISC_EEEEED1B7v160006Ev, symObjAddr: 0x4B1C, symBinAddr: 0x100006204, symSize: 0x2C }
  - { offsetInCU: 0x2D940, offset: 0x2D940, size: 0x8, addend: 0x0, symName: __ZNSt3__112__hash_tableINS_17__hash_value_typeI3PSKP8PSObjectEENS_22__unordered_map_hasherIS2_S5_NS_4hashIS2_EENS_8equal_toIS2_EELb1EEENS_21__unordered_map_equalIS2_S5_SA_S8_Lb1EEENS_9allocatorIS5_EEE12__node_allocB7v160006Ev, symObjAddr: 0x4B48, symBinAddr: 0x100006230, symSize: 0x28 }
  - { offsetInCU: 0x2D966, offset: 0x2D966, size: 0x8, addend: 0x0, symName: __ZNSt3__116allocator_traitsINS_9allocatorINS_11__hash_nodeINS_17__hash_value_typeI3PSKP8PSObjectEEPvEEEEE7destroyB7v160006INS_4pairIKS4_S6_EEvvEEvRSA_PT_, symObjAddr: 0x4B70, symBinAddr: 0x100006258, symSize: 0x14 }
  - { offsetInCU: 0x2D9A1, offset: 0x2D9A1, size: 0x8, addend: 0x0, symName: __ZNSt3__122__hash_key_value_typesINS_17__hash_value_typeI3PSKP8PSObjectEEE9__get_ptrB7v160006ERS5_, symObjAddr: 0x4B84, symBinAddr: 0x10000626C, symSize: 0x24 }
  - { offsetInCU: 0x2D9C4, offset: 0x2D9C4, size: 0x8, addend: 0x0, symName: __ZNSt3__116allocator_traitsINS_9allocatorINS_11__hash_nodeINS_17__hash_value_typeI3PSKP8PSObjectEEPvEEEEE10deallocateB7v160006ERSA_PS9_m, symObjAddr: 0x4BA8, symBinAddr: 0x100006290, symSize: 0x34 }
  - { offsetInCU: 0x2DA06, offset: 0x2DA06, size: 0x8, addend: 0x0, symName: __ZNSt3__117__compressed_pairINS_16__hash_node_baseIPNS_11__hash_nodeINS_17__hash_value_typeI3PSKP8PSObjectEEPvEEEENS_9allocatorIS9_EEE6secondB7v160006Ev, symObjAddr: 0x4BDC, symBinAddr: 0x1000062C4, symSize: 0x24 }
  - { offsetInCU: 0x2DA2C, offset: 0x2DA2C, size: 0x8, addend: 0x0, symName: __ZNSt3__122__compressed_pair_elemINS_9allocatorINS_11__hash_nodeINS_17__hash_value_typeI3PSKP8PSObjectEEPvEEEELi1ELb1EE5__getB7v160006Ev, symObjAddr: 0x4C00, symBinAddr: 0x1000062E8, symSize: 0x14 }
  - { offsetInCU: 0x2DA52, offset: 0x2DA52, size: 0x8, addend: 0x0, symName: __ZNSt3__19allocatorINS_11__hash_nodeINS_17__hash_value_typeI3PSKP8PSObjectEEPvEEE10deallocateB7v160006EPS8_m, symObjAddr: 0x4C14, symBinAddr: 0x1000062FC, symSize: 0x40 }
  - { offsetInCU: 0x2DA94, offset: 0x2DA94, size: 0x8, addend: 0x0, symName: __ZNSt3__110unique_ptrIA_PNS_16__hash_node_baseIPNS_11__hash_nodeINS_17__hash_value_typeI3PSKP8PSObjectEEPvEEEENS_25__bucket_list_deallocatorINS_9allocatorISC_EEEEED2B7v160006Ev, symObjAddr: 0x4D7C, symBinAddr: 0x100006464, symSize: 0x30 }
  - { offsetInCU: 0x2DABE, offset: 0x2DABE, size: 0x8, addend: 0x0, symName: __ZNSt3__110unique_ptrIA_PNS_16__hash_node_baseIPNS_11__hash_nodeINS_17__hash_value_typeI3PSKP8PSObjectEEPvEEEENS_25__bucket_list_deallocatorINS_9allocatorISC_EEEEE5resetB7v160006EDn, symObjAddr: 0x4DAC, symBinAddr: 0x100006494, symSize: 0x6C }
  - { offsetInCU: 0x2DAFF, offset: 0x2DAFF, size: 0x8, addend: 0x0, symName: __ZNSt3__117__compressed_pairIPPNS_16__hash_node_baseIPNS_11__hash_nodeINS_17__hash_value_typeI3PSKP8PSObjectEEPvEEEENS_25__bucket_list_deallocatorINS_9allocatorISC_EEEEE5firstB7v160006Ev, symObjAddr: 0x4E18, symBinAddr: 0x100006500, symSize: 0x24 }
  - { offsetInCU: 0x2DB25, offset: 0x2DB25, size: 0x8, addend: 0x0, symName: __ZNSt3__117__compressed_pairIPPNS_16__hash_node_baseIPNS_11__hash_nodeINS_17__hash_value_typeI3PSKP8PSObjectEEPvEEEENS_25__bucket_list_deallocatorINS_9allocatorISC_EEEEE6secondB7v160006Ev, symObjAddr: 0x4E3C, symBinAddr: 0x100006524, symSize: 0x28 }
  - { offsetInCU: 0x2DB4B, offset: 0x2DB4B, size: 0x8, addend: 0x0, symName: __ZNSt3__125__bucket_list_deallocatorINS_9allocatorIPNS_16__hash_node_baseIPNS_11__hash_nodeINS_17__hash_value_typeI3PSKP8PSObjectEEPvEEEEEEEclB7v160006EPSD_, symObjAddr: 0x4E64, symBinAddr: 0x10000654C, symSize: 0x58 }
  - { offsetInCU: 0x2DB80, offset: 0x2DB80, size: 0x8, addend: 0x0, symName: __ZNSt3__122__compressed_pair_elemIPPNS_16__hash_node_baseIPNS_11__hash_nodeINS_17__hash_value_typeI3PSKP8PSObjectEEPvEEEELi0ELb0EE5__getB7v160006Ev, symObjAddr: 0x4EBC, symBinAddr: 0x1000065A4, symSize: 0x14 }
  - { offsetInCU: 0x2DBA6, offset: 0x2DBA6, size: 0x8, addend: 0x0, symName: __ZNSt3__122__compressed_pair_elemINS_25__bucket_list_deallocatorINS_9allocatorIPNS_16__hash_node_baseIPNS_11__hash_nodeINS_17__hash_value_typeI3PSKP8PSObjectEEPvEEEEEEEELi1ELb0EE5__getB7v160006Ev, symObjAddr: 0x4ED0, symBinAddr: 0x1000065B8, symSize: 0x14 }
  - { offsetInCU: 0x2DBCC, offset: 0x2DBCC, size: 0x8, addend: 0x0, symName: __ZNSt3__116allocator_traitsINS_9allocatorIPNS_16__hash_node_baseIPNS_11__hash_nodeINS_17__hash_value_typeI3PSKP8PSObjectEEPvEEEEEEE10deallocateB7v160006ERSE_PSD_m, symObjAddr: 0x4EE4, symBinAddr: 0x1000065CC, symSize: 0x34 }
  - { offsetInCU: 0x2DC0E, offset: 0x2DC0E, size: 0x8, addend: 0x0, symName: __ZNSt3__125__bucket_list_deallocatorINS_9allocatorIPNS_16__hash_node_baseIPNS_11__hash_nodeINS_17__hash_value_typeI3PSKP8PSObjectEEPvEEEEEEE7__allocB7v160006Ev, symObjAddr: 0x4F18, symBinAddr: 0x100006600, symSize: 0x24 }
  - { offsetInCU: 0x2DC34, offset: 0x2DC34, size: 0x8, addend: 0x0, symName: __ZNSt3__125__bucket_list_deallocatorINS_9allocatorIPNS_16__hash_node_baseIPNS_11__hash_nodeINS_17__hash_value_typeI3PSKP8PSObjectEEPvEEEEEEE4sizeB7v160006Ev, symObjAddr: 0x4F3C, symBinAddr: 0x100006624, symSize: 0x24 }
  - { offsetInCU: 0x2DC5A, offset: 0x2DC5A, size: 0x8, addend: 0x0, symName: __ZNSt3__19allocatorIPNS_16__hash_node_baseIPNS_11__hash_nodeINS_17__hash_value_typeI3PSKP8PSObjectEEPvEEEEE10deallocateB7v160006EPSC_m, symObjAddr: 0x4F60, symBinAddr: 0x100006648, symSize: 0x40 }
  - { offsetInCU: 0x2DC9C, offset: 0x2DC9C, size: 0x8, addend: 0x0, symName: __ZNSt3__117__compressed_pairImNS_9allocatorIPNS_16__hash_node_baseIPNS_11__hash_nodeINS_17__hash_value_typeI3PSKP8PSObjectEEPvEEEEEEE6secondB7v160006Ev, symObjAddr: 0x4FA0, symBinAddr: 0x100006688, symSize: 0x24 }
  - { offsetInCU: 0x2DCC2, offset: 0x2DCC2, size: 0x8, addend: 0x0, symName: __ZNSt3__122__compressed_pair_elemINS_9allocatorIPNS_16__hash_node_baseIPNS_11__hash_nodeINS_17__hash_value_typeI3PSKP8PSObjectEEPvEEEEEELi1ELb1EE5__getB7v160006Ev, symObjAddr: 0x4FC4, symBinAddr: 0x1000066AC, symSize: 0x14 }
  - { offsetInCU: 0x2DCE8, offset: 0x2DCE8, size: 0x8, addend: 0x0, symName: __ZNSt3__117__compressed_pairImNS_9allocatorIPNS_16__hash_node_baseIPNS_11__hash_nodeINS_17__hash_value_typeI3PSKP8PSObjectEEPvEEEEEEE5firstB7v160006Ev, symObjAddr: 0x4FD8, symBinAddr: 0x1000066C0, symSize: 0x24 }
  - { offsetInCU: 0x2DD0E, offset: 0x2DD0E, size: 0x8, addend: 0x0, symName: __ZNSt3__122__compressed_pair_elemImLi0ELb0EE5__getB7v160006Ev, symObjAddr: 0x4FFC, symBinAddr: 0x1000066E4, symSize: 0x14 }
  - { offsetInCU: 0x2DD34, offset: 0x2DD34, size: 0x8, addend: 0x0, symName: __ZN18PSObjectCollection7getItemI8PSObjectEEPT_RK3PSK, symObjAddr: 0x5010, symBinAddr: 0x1000066F8, symSize: 0x88 }
  - { offsetInCU: 0x2DD7F, offset: 0x2DD7F, size: 0x8, addend: 0x0, symName: __ZNSt3__113unordered_mapI3PSKP8PSObjectNS_4hashIS1_EENS_8equal_toIS1_EENS_9allocatorINS_4pairIKS1_S3_EEEEE4findB7v160006ERSA_, symObjAddr: 0x5098, symBinAddr: 0x100006780, symSize: 0x40 }
  - { offsetInCU: 0x2DDB4, offset: 0x2DDB4, size: 0x8, addend: 0x0, symName: __ZNKSt3__119__hash_map_iteratorINS_15__hash_iteratorIPNS_11__hash_nodeINS_17__hash_value_typeI3PSKP8PSObjectEEPvEEEEEptB7v160006Ev, symObjAddr: 0x50D8, symBinAddr: 0x1000067C0, symSize: 0x2C }
  - { offsetInCU: 0x2DDDA, offset: 0x2DDDA, size: 0x8, addend: 0x0, symName: __ZNSt3__112__hash_tableINS_17__hash_value_typeI3PSKP8PSObjectEENS_22__unordered_map_hasherIS2_S5_NS_4hashIS2_EENS_8equal_toIS2_EELb1EEENS_21__unordered_map_equalIS2_S5_SA_S8_Lb1EEENS_9allocatorIS5_EEE4findIS2_EENS_15__hash_iteratorIPNS_11__hash_nodeIS5_PvEEEERKT_, symObjAddr: 0x5104, symBinAddr: 0x1000067EC, symSize: 0x1B4 }
  - { offsetInCU: 0x2DE64, offset: 0x2DE64, size: 0x8, addend: 0x0, symName: __ZNSt3__112__hash_tableINS_17__hash_value_typeI3PSKP8PSObjectEENS_22__unordered_map_hasherIS2_S5_NS_4hashIS2_EENS_8equal_toIS2_EELb1EEENS_21__unordered_map_equalIS2_S5_SA_S8_Lb1EEENS_9allocatorIS5_EEE13hash_functionB7v160006Ev, symObjAddr: 0x52B8, symBinAddr: 0x1000069A0, symSize: 0x28 }
  - { offsetInCU: 0x2DE8A, offset: 0x2DE8A, size: 0x8, addend: 0x0, symName: __ZNKSt3__122__unordered_map_hasherI3PSKNS_17__hash_value_typeIS1_P8PSObjectEENS_4hashIS1_EENS_8equal_toIS1_EELb1EEclB7v160006ERKS1_, symObjAddr: 0x52E0, symBinAddr: 0x1000069C8, symSize: 0x30 }
  - { offsetInCU: 0x2DEBF, offset: 0x2DEBF, size: 0x8, addend: 0x0, symName: __ZNKSt3__112__hash_tableINS_17__hash_value_typeI3PSKP8PSObjectEENS_22__unordered_map_hasherIS2_S5_NS_4hashIS2_EENS_8equal_toIS2_EELb1EEENS_21__unordered_map_equalIS2_S5_SA_S8_Lb1EEENS_9allocatorIS5_EEE12bucket_countB7v160006Ev, symObjAddr: 0x5310, symBinAddr: 0x1000069F8, symSize: 0x28 }
  - { offsetInCU: 0x2DEE5, offset: 0x2DEE5, size: 0x8, addend: 0x0, symName: __ZNKSt3__110unique_ptrIA_PNS_16__hash_node_baseIPNS_11__hash_nodeINS_17__hash_value_typeI3PSKP8PSObjectEEPvEEEENS_25__bucket_list_deallocatorINS_9allocatorISC_EEEEEixB7v160006Em, symObjAddr: 0x53D0, symBinAddr: 0x100006AB8, symSize: 0x34 }
  - { offsetInCU: 0x2DF1A, offset: 0x2DF1A, size: 0x8, addend: 0x0, symName: __ZNKSt3__116__hash_node_baseIPNS_11__hash_nodeINS_17__hash_value_typeI3PSKP8PSObjectEEPvEEE6__hashB7v160006Ev, symObjAddr: 0x5404, symBinAddr: 0x100006AEC, symSize: 0x18 }
  - { offsetInCU: 0x2DF40, offset: 0x2DF40, size: 0x8, addend: 0x0, symName: __ZNSt3__112__hash_tableINS_17__hash_value_typeI3PSKP8PSObjectEENS_22__unordered_map_hasherIS2_S5_NS_4hashIS2_EENS_8equal_toIS2_EELb1EEENS_21__unordered_map_equalIS2_S5_SA_S8_Lb1EEENS_9allocatorIS5_EEE6key_eqB7v160006Ev, symObjAddr: 0x541C, symBinAddr: 0x100006B04, symSize: 0x28 }
  - { offsetInCU: 0x2DF66, offset: 0x2DF66, size: 0x8, addend: 0x0, symName: __ZNKSt3__121__unordered_map_equalI3PSKNS_17__hash_value_typeIS1_P8PSObjectEENS_8equal_toIS1_EENS_4hashIS1_EELb1EEclB7v160006ERKS5_RKS1_, symObjAddr: 0x5444, symBinAddr: 0x100006B2C, symSize: 0x48 }
  - { offsetInCU: 0x2DFAA, offset: 0x2DFAA, size: 0x8, addend: 0x0, symName: __ZNSt3__117__compressed_pairImNS_22__unordered_map_hasherI3PSKNS_17__hash_value_typeIS2_P8PSObjectEENS_4hashIS2_EENS_8equal_toIS2_EELb1EEEE6secondB7v160006Ev, symObjAddr: 0x548C, symBinAddr: 0x100006B74, symSize: 0x24 }
  - { offsetInCU: 0x2DFD0, offset: 0x2DFD0, size: 0x8, addend: 0x0, symName: __ZNSt3__122__compressed_pair_elemINS_22__unordered_map_hasherI3PSKNS_17__hash_value_typeIS2_P8PSObjectEENS_4hashIS2_EENS_8equal_toIS2_EELb1EEELi1ELb1EE5__getB7v160006Ev, symObjAddr: 0x54B0, symBinAddr: 0x100006B98, symSize: 0x14 }
  - { offsetInCU: 0x2E000, offset: 0x2E000, size: 0x8, addend: 0x0, symName: __ZNKSt3__14hashIjEclB7v160006Ej, symObjAddr: 0x54F0, symBinAddr: 0x100006BD8, symSize: 0x1C }
  - { offsetInCU: 0x2E035, offset: 0x2E035, size: 0x8, addend: 0x0, symName: __ZNKSt3__110unique_ptrIA_PNS_16__hash_node_baseIPNS_11__hash_nodeINS_17__hash_value_typeI3PSKP8PSObjectEEPvEEEENS_25__bucket_list_deallocatorINS_9allocatorISC_EEEEE11get_deleterB7v160006Ev, symObjAddr: 0x550C, symBinAddr: 0x100006BF4, symSize: 0x24 }
  - { offsetInCU: 0x2E05B, offset: 0x2E05B, size: 0x8, addend: 0x0, symName: __ZNKSt3__125__bucket_list_deallocatorINS_9allocatorIPNS_16__hash_node_baseIPNS_11__hash_nodeINS_17__hash_value_typeI3PSKP8PSObjectEEPvEEEEEEE4sizeB7v160006Ev, symObjAddr: 0x5530, symBinAddr: 0x100006C18, symSize: 0x28 }
  - { offsetInCU: 0x2E081, offset: 0x2E081, size: 0x8, addend: 0x0, symName: __ZNKSt3__117__compressed_pairIPPNS_16__hash_node_baseIPNS_11__hash_nodeINS_17__hash_value_typeI3PSKP8PSObjectEEPvEEEENS_25__bucket_list_deallocatorINS_9allocatorISC_EEEEE6secondB7v160006Ev, symObjAddr: 0x5558, symBinAddr: 0x100006C40, symSize: 0x28 }
  - { offsetInCU: 0x2E0A7, offset: 0x2E0A7, size: 0x8, addend: 0x0, symName: __ZNKSt3__122__compressed_pair_elemINS_25__bucket_list_deallocatorINS_9allocatorIPNS_16__hash_node_baseIPNS_11__hash_nodeINS_17__hash_value_typeI3PSKP8PSObjectEEPvEEEEEEEELi1ELb0EE5__getB7v160006Ev, symObjAddr: 0x5580, symBinAddr: 0x100006C68, symSize: 0x14 }
  - { offsetInCU: 0x2E0CD, offset: 0x2E0CD, size: 0x8, addend: 0x0, symName: __ZNKSt3__117__compressed_pairImNS_9allocatorIPNS_16__hash_node_baseIPNS_11__hash_nodeINS_17__hash_value_typeI3PSKP8PSObjectEEPvEEEEEEE5firstB7v160006Ev, symObjAddr: 0x5594, symBinAddr: 0x100006C7C, symSize: 0x24 }
  - { offsetInCU: 0x2E0F3, offset: 0x2E0F3, size: 0x8, addend: 0x0, symName: __ZNKSt3__122__compressed_pair_elemImLi0ELb0EE5__getB7v160006Ev, symObjAddr: 0x55B8, symBinAddr: 0x100006CA0, symSize: 0x14 }
  - { offsetInCU: 0x2E119, offset: 0x2E119, size: 0x8, addend: 0x0, symName: __ZNKSt3__117__compressed_pairIPPNS_16__hash_node_baseIPNS_11__hash_nodeINS_17__hash_value_typeI3PSKP8PSObjectEEPvEEEENS_25__bucket_list_deallocatorINS_9allocatorISC_EEEEE5firstB7v160006Ev, symObjAddr: 0x55CC, symBinAddr: 0x100006CB4, symSize: 0x24 }
  - { offsetInCU: 0x2E13F, offset: 0x2E13F, size: 0x8, addend: 0x0, symName: __ZNKSt3__122__compressed_pair_elemIPPNS_16__hash_node_baseIPNS_11__hash_nodeINS_17__hash_value_typeI3PSKP8PSObjectEEPvEEEELi0ELb0EE5__getB7v160006Ev, symObjAddr: 0x55F0, symBinAddr: 0x100006CD8, symSize: 0x14 }
  - { offsetInCU: 0x2E165, offset: 0x2E165, size: 0x8, addend: 0x0, symName: __ZNSt3__117__compressed_pairIfNS_21__unordered_map_equalI3PSKNS_17__hash_value_typeIS2_P8PSObjectEENS_8equal_toIS2_EENS_4hashIS2_EELb1EEEE6secondB7v160006Ev, symObjAddr: 0x5604, symBinAddr: 0x100006CEC, symSize: 0x24 }
  - { offsetInCU: 0x2E18B, offset: 0x2E18B, size: 0x8, addend: 0x0, symName: __ZNSt3__122__compressed_pair_elemINS_21__unordered_map_equalI3PSKNS_17__hash_value_typeIS2_P8PSObjectEENS_8equal_toIS2_EENS_4hashIS2_EELb1EEELi1ELb1EE5__getB7v160006Ev, symObjAddr: 0x5628, symBinAddr: 0x100006D10, symSize: 0x14 }
  - { offsetInCU: 0x2E1B1, offset: 0x2E1B1, size: 0x8, addend: 0x0, symName: __ZNKSt3__18equal_toI3PSKEclB7v160006ERKS1_S4_, symObjAddr: 0x563C, symBinAddr: 0x100006D24, symSize: 0x34 }
  - { offsetInCU: 0x2E1F5, offset: 0x2E1F5, size: 0x8, addend: 0x0, symName: __ZNKSt3__117__hash_value_typeI3PSKP8PSObjectE11__get_valueB7v160006Ev, symObjAddr: 0x5670, symBinAddr: 0x100006D58, symSize: 0x24 }
  - { offsetInCU: 0x2E21B, offset: 0x2E21B, size: 0x8, addend: 0x0, symName: __ZNSt3__114pointer_traitsIPNS_4pairIK3PSKP8PSObjectEEE10pointer_toB7v160006ERS6_, symObjAddr: 0x56CC, symBinAddr: 0x100006DB4, symSize: 0x14 }
  - { offsetInCU: 0x2E23E, offset: 0x2E23E, size: 0x8, addend: 0x0, symName: __ZN18PSParameterManagerD2Ev, symObjAddr: 0x56E0, symBinAddr: 0x100006DC8, symSize: 0x2C }
  - { offsetInCU: 0x2E268, offset: 0x2E268, size: 0x8, addend: 0x0, symName: __ZN18PSParameterManager5byKeyERK3PSK, symObjAddr: 0x570C, symBinAddr: 0x100006DF4, symSize: 0x2C }
  - { offsetInCU: 0x2E29C, offset: 0x2E29C, size: 0x8, addend: 0x0, symName: __ZN11PSParameterC1ERK3PSKRKNSt3__112basic_stringIcNS3_11char_traitsIcEENS3_9allocatorIcEEEE, symObjAddr: 0x5738, symBinAddr: 0x100006E20, symSize: 0x3C }
  - { offsetInCU: 0x2E2E2, offset: 0x2E2E2, size: 0x8, addend: 0x0, symName: __ZN18PSObjectCollection7addItemI11PSParameterEEPT_S3_, symObjAddr: 0x5774, symBinAddr: 0x100006E5C, symSize: 0x70 }
  - { offsetInCU: 0x2E33B, offset: 0x2E33B, size: 0x8, addend: 0x0, symName: __ZN18PSObjectCollection7getItemI11PSParameterEEPT_RK3PSK, symObjAddr: 0x57E4, symBinAddr: 0x100006ECC, symSize: 0x88 }
  - { offsetInCU: 0x2E386, offset: 0x2E386, size: 0x8, addend: 0x0, symName: __ZN11PSParameterC2ERK3PSKRKNSt3__112basic_stringIcNS3_11char_traitsIcEENS3_9allocatorIcEEEE, symObjAddr: 0x586C, symBinAddr: 0x100006F54, symSize: 0x58 }
  - { offsetInCU: 0x2E3CC, offset: 0x2E3CC, size: 0x8, addend: 0x0, symName: __ZN8PSObjectC2ERK3PSKRKNSt3__112basic_stringIcNS3_11char_traitsIcEENS3_9allocatorIcEEEE, symObjAddr: 0x58C4, symBinAddr: 0x100006FAC, symSize: 0x144 }
  - { offsetInCU: 0x2E412, offset: 0x2E412, size: 0x8, addend: 0x0, symName: __ZN11PSParameterD1Ev, symObjAddr: 0x5A08, symBinAddr: 0x1000070F0, symSize: 0x2C }
  - { offsetInCU: 0x2E43C, offset: 0x2E43C, size: 0x8, addend: 0x0, symName: __ZN11PSParameterD0Ev, symObjAddr: 0x5A34, symBinAddr: 0x10000711C, symSize: 0x30 }
  - { offsetInCU: 0x2E466, offset: 0x2E466, size: 0x8, addend: 0x0, symName: __ZN8PSObject6updateEv, symObjAddr: 0x5A64, symBinAddr: 0x10000714C, symSize: 0x18 }
  - { offsetInCU: 0x2E48C, offset: 0x2E48C, size: 0x8, addend: 0x0, symName: __ZN8PSObject8typeNameEv, symObjAddr: 0x5A7C, symBinAddr: 0x100007164, symSize: 0x18 }
  - { offsetInCU: 0x2E4B2, offset: 0x2E4B2, size: 0x8, addend: 0x0, symName: __ZN11PSParameter9serializeEv, symObjAddr: 0x5A94, symBinAddr: 0x10000717C, symSize: 0x51C }
  - { offsetInCU: 0x2E4E6, offset: 0x2E4E6, size: 0x8, addend: 0x0, symName: __ZN8PSObjectD1Ev, symObjAddr: 0x5FB0, symBinAddr: 0x100007698, symSize: 0x2C }
  - { offsetInCU: 0x2E510, offset: 0x2E510, size: 0x8, addend: 0x0, symName: __ZN8PSObjectD0Ev, symObjAddr: 0x5FDC, symBinAddr: 0x1000076C4, symSize: 0x30 }
  - { offsetInCU: 0x2E53A, offset: 0x2E53A, size: 0x8, addend: 0x0, symName: __ZN8PSObject9serializeEv, symObjAddr: 0x600C, symBinAddr: 0x1000076F4, symSize: 0x54 }
  - { offsetInCU: 0x2E560, offset: 0x2E560, size: 0x8, addend: 0x0, symName: __ZN8PSObjectD2Ev, symObjAddr: 0x6060, symBinAddr: 0x100007748, symSize: 0xD4 }
  - { offsetInCU: 0x2E58A, offset: 0x2E58A, size: 0x8, addend: 0x0, symName: __ZN11PSParameterD2Ev, symObjAddr: 0x6134, symBinAddr: 0x10000781C, symSize: 0x2C }
  - { offsetInCU: 0x2E5B4, offset: 0x2E5B4, size: 0x8, addend: 0x0, symName: __ZN13StringBuilder7addPairERKNSt3__112basic_stringIcNS0_11char_traitsIcEENS0_9allocatorIcEEEES8_, symObjAddr: 0x6160, symBinAddr: 0x100007848, symSize: 0x130 }
  - { offsetInCU: 0x2E5F6, offset: 0x2E5F6, size: 0x8, addend: 0x0, symName: __ZNSt3__112basic_stringIcNS_11char_traitsIcEENS_9allocatorIcEEEpLB7v160006ERKS5_, symObjAddr: 0x62D0, symBinAddr: 0x1000079B8, symSize: 0x2C }
  - { offsetInCU: 0x2E62B, offset: 0x2E62B, size: 0x8, addend: 0x0, symName: __ZNSt3__112basic_stringIcNS_11char_traitsIcEENS_9allocatorIcEEE6appendB7v160006ERKS5_, symObjAddr: 0x62FC, symBinAddr: 0x1000079E4, symSize: 0x4C }
  - { offsetInCU: 0x2E660, offset: 0x2E660, size: 0x8, addend: 0x0, symName: __ZNSt3__112basic_stringIcNS_11char_traitsIcEENS_9allocatorIcEEEC1B7v160006EOS5_, symObjAddr: 0x6348, symBinAddr: 0x100007A30, symSize: 0x34 }
  - { offsetInCU: 0x2E699, offset: 0x2E699, size: 0x8, addend: 0x0, symName: __ZNKSt3__112basic_stringIcNS_11char_traitsIcEENS_9allocatorIcEEE4dataB7v160006Ev, symObjAddr: 0x637C, symBinAddr: 0x100007A64, symSize: 0x28 }
  - { offsetInCU: 0x2E6BF, offset: 0x2E6BF, size: 0x8, addend: 0x0, symName: __ZNKSt3__112basic_stringIcNS_11char_traitsIcEENS_9allocatorIcEEE4sizeB7v160006Ev, symObjAddr: 0x63A4, symBinAddr: 0x100007A8C, symSize: 0x54 }
  - { offsetInCU: 0x2E6E5, offset: 0x2E6E5, size: 0x8, addend: 0x0, symName: __ZNKSt3__112basic_stringIcNS_11char_traitsIcEENS_9allocatorIcEEE13__get_pointerB7v160006Ev, symObjAddr: 0x640C, symBinAddr: 0x100007AF4, symSize: 0x54 }
  - { offsetInCU: 0x2E70B, offset: 0x2E70B, size: 0x8, addend: 0x0, symName: __ZNKSt3__112basic_stringIcNS_11char_traitsIcEENS_9allocatorIcEEE9__is_longB7v160006Ev, symObjAddr: 0x6460, symBinAddr: 0x100007B48, symSize: 0x38 }
  - { offsetInCU: 0x2E731, offset: 0x2E731, size: 0x8, addend: 0x0, symName: __ZNKSt3__112basic_stringIcNS_11char_traitsIcEENS_9allocatorIcEEE18__get_long_pointerB7v160006Ev, symObjAddr: 0x6498, symBinAddr: 0x100007B80, symSize: 0x28 }
  - { offsetInCU: 0x2E757, offset: 0x2E757, size: 0x8, addend: 0x0, symName: __ZNKSt3__112basic_stringIcNS_11char_traitsIcEENS_9allocatorIcEEE19__get_short_pointerB7v160006Ev, symObjAddr: 0x64C0, symBinAddr: 0x100007BA8, symSize: 0x28 }
  - { offsetInCU: 0x2E77D, offset: 0x2E77D, size: 0x8, addend: 0x0, symName: __ZNKSt3__117__compressed_pairINS_12basic_stringIcNS_11char_traitsIcEENS_9allocatorIcEEE5__repES5_E5firstB7v160006Ev, symObjAddr: 0x64E8, symBinAddr: 0x100007BD0, symSize: 0x24 }
  - { offsetInCU: 0x2E7A3, offset: 0x2E7A3, size: 0x8, addend: 0x0, symName: __ZNKSt3__122__compressed_pair_elemINS_12basic_stringIcNS_11char_traitsIcEENS_9allocatorIcEEE5__repELi0ELb0EE5__getB7v160006Ev, symObjAddr: 0x650C, symBinAddr: 0x100007BF4, symSize: 0x14 }
  - { offsetInCU: 0x2E7C9, offset: 0x2E7C9, size: 0x8, addend: 0x0, symName: __ZNSt3__114pointer_traitsIPKcE10pointer_toB7v160006ERS1_, symObjAddr: 0x6520, symBinAddr: 0x100007C08, symSize: 0x14 }
  - { offsetInCU: 0x2E7EC, offset: 0x2E7EC, size: 0x8, addend: 0x0, symName: __ZNKSt3__112basic_stringIcNS_11char_traitsIcEENS_9allocatorIcEEE15__get_long_sizeB7v160006Ev, symObjAddr: 0x6534, symBinAddr: 0x100007C1C, symSize: 0x28 }
  - { offsetInCU: 0x2E812, offset: 0x2E812, size: 0x8, addend: 0x0, symName: __ZNKSt3__112basic_stringIcNS_11char_traitsIcEENS_9allocatorIcEEE16__get_short_sizeB7v160006Ev, symObjAddr: 0x655C, symBinAddr: 0x100007C44, symSize: 0x34 }
  - { offsetInCU: 0x2E838, offset: 0x2E838, size: 0x8, addend: 0x0, symName: __ZNSt3__112basic_stringIcNS_11char_traitsIcEENS_9allocatorIcEEEC2B7v160006EOS5_, symObjAddr: 0x6590, symBinAddr: 0x100007C78, symSize: 0x88 }
  - { offsetInCU: 0x2E871, offset: 0x2E871, size: 0x8, addend: 0x0, symName: __ZNSt3__112basic_stringIcNS_11char_traitsIcEENS_9allocatorIcEEE14__default_initB7v160006Ev, symObjAddr: 0x6618, symBinAddr: 0x100007D00, symSize: 0x40 }
  - { offsetInCU: 0x2E897, offset: 0x2E897, size: 0x8, addend: 0x0, symName: __ZNSt3__117__compressed_pairINS_12basic_stringIcNS_11char_traitsIcEENS_9allocatorIcEEE5__repES5_E5firstB7v160006Ev, symObjAddr: 0x667C, symBinAddr: 0x100007D64, symSize: 0x24 }
  - { offsetInCU: 0x2E8BD, offset: 0x2E8BD, size: 0x8, addend: 0x0, symName: __ZNSt3__122__compressed_pair_elemINS_12basic_stringIcNS_11char_traitsIcEENS_9allocatorIcEEE5__repELi0ELb0EE5__getB7v160006Ev, symObjAddr: 0x66A0, symBinAddr: 0x100007D88, symSize: 0x14 }
  - { offsetInCU: 0x2E8E3, offset: 0x2E8E3, size: 0x8, addend: 0x0, symName: __ZNSt3__113unordered_mapI3PSKP8PSObjectNS_4hashIS1_EENS_8equal_toIS1_EENS_9allocatorINS_4pairIKS1_S3_EEEEEixERSA_, symObjAddr: 0x66B4, symBinAddr: 0x100007D9C, symSize: 0x80 }
  - { offsetInCU: 0x2E931, offset: 0x2E931, size: 0x8, addend: 0x0, symName: __ZNSt3__112__hash_tableINS_17__hash_value_typeI3PSKP8PSObjectEENS_22__unordered_map_hasherIS2_S5_NS_4hashIS2_EENS_8equal_toIS2_EELb1EEENS_21__unordered_map_equalIS2_S5_SA_S8_Lb1EEENS_9allocatorIS5_EEE25__emplace_unique_key_argsIS2_JRKNS_21piecewise_construct_tENS_5tupleIJRKS2_EEENSL_IJEEEEEENS_4pairINS_15__hash_iteratorIPNS_11__hash_nodeIS5_PvEEEEbEERKT_DpOT0_, symObjAddr: 0x6734, symBinAddr: 0x100007E1C, symSize: 0x4A0 }
  - { offsetInCU: 0x2EA3B, offset: 0x2EA3B, size: 0x8, addend: 0x0, symName: __ZNSt3__112__hash_tableINS_17__hash_value_typeI3PSKP8PSObjectEENS_22__unordered_map_hasherIS2_S5_NS_4hashIS2_EENS_8equal_toIS2_EELb1EEENS_21__unordered_map_equalIS2_S5_SA_S8_Lb1EEENS_9allocatorIS5_EEE21__construct_node_hashIRKNS_21piecewise_construct_tEJNS_5tupleIJRKS2_EEENSL_IJEEEEEENS_10unique_ptrINS_11__hash_nodeIS5_PvEENS_22__hash_node_destructorINSE_IST_EEEEEEmOT_DpOT0_, symObjAddr: 0x6C04, symBinAddr: 0x1000082EC, symSize: 0x148 }
  - { offsetInCU: 0x2EAD7, offset: 0x2EAD7, size: 0x8, addend: 0x0, symName: __ZNSt3__112__hash_tableINS_17__hash_value_typeI3PSKP8PSObjectEENS_22__unordered_map_hasherIS2_S5_NS_4hashIS2_EENS_8equal_toIS2_EELb1EEENS_21__unordered_map_equalIS2_S5_SA_S8_Lb1EEENS_9allocatorIS5_EEE4sizeB7v160006Ev, symObjAddr: 0x6D4C, symBinAddr: 0x100008434, symSize: 0x28 }
  - { offsetInCU: 0x2EAFD, offset: 0x2EAFD, size: 0x8, addend: 0x0, symName: __ZNSt3__112__hash_tableINS_17__hash_value_typeI3PSKP8PSObjectEENS_22__unordered_map_hasherIS2_S5_NS_4hashIS2_EENS_8equal_toIS2_EELb1EEENS_21__unordered_map_equalIS2_S5_SA_S8_Lb1EEENS_9allocatorIS5_EEE15max_load_factorB7v160006Ev, symObjAddr: 0x6D74, symBinAddr: 0x10000845C, symSize: 0x28 }
  - { offsetInCU: 0x2EB23, offset: 0x2EB23, size: 0x8, addend: 0x0, symName: __ZNSt3__112__hash_tableINS_17__hash_value_typeI3PSKP8PSObjectEENS_22__unordered_map_hasherIS2_S5_NS_4hashIS2_EENS_8equal_toIS2_EELb1EEENS_21__unordered_map_equalIS2_S5_SA_S8_Lb1EEENS_9allocatorIS5_EEE15__rehash_uniqueB7v160006Em, symObjAddr: 0x6D9C, symBinAddr: 0x100008484, symSize: 0x2C }
  - { offsetInCU: 0x2EB58, offset: 0x2EB58, size: 0x8, addend: 0x0, symName: __Z4ceilB7v160006f, symObjAddr: 0x6E44, symBinAddr: 0x10000852C, symSize: 0x18 }
  - { offsetInCU: 0x2EB86, offset: 0x2EB86, size: 0x8, addend: 0x0, symName: __ZNSt3__116__hash_node_baseIPNS_11__hash_nodeINS_17__hash_value_typeI3PSKP8PSObjectEEPvEEE5__ptrB7v160006Ev, symObjAddr: 0x6E5C, symBinAddr: 0x100008544, symSize: 0x24 }
  - { offsetInCU: 0x2EBAC, offset: 0x2EBAC, size: 0x8, addend: 0x0, symName: __ZNKSt3__110unique_ptrINS_11__hash_nodeINS_17__hash_value_typeI3PSKP8PSObjectEEPvEENS_22__hash_node_destructorINS_9allocatorIS8_EEEEEptB7v160006Ev, symObjAddr: 0x6E80, symBinAddr: 0x100008568, symSize: 0x28 }
  - { offsetInCU: 0x2EBD2, offset: 0x2EBD2, size: 0x8, addend: 0x0, symName: __ZNKSt3__110unique_ptrINS_11__hash_nodeINS_17__hash_value_typeI3PSKP8PSObjectEEPvEENS_22__hash_node_destructorINS_9allocatorIS8_EEEEE3getB7v160006Ev, symObjAddr: 0x6EA8, symBinAddr: 0x100008590, symSize: 0x28 }
  - { offsetInCU: 0x2EBF8, offset: 0x2EBF8, size: 0x8, addend: 0x0, symName: __ZNSt3__110unique_ptrINS_11__hash_nodeINS_17__hash_value_typeI3PSKP8PSObjectEEPvEENS_22__hash_node_destructorINS_9allocatorIS8_EEEEE7releaseB7v160006Ev, symObjAddr: 0x6ED0, symBinAddr: 0x1000085B8, symSize: 0x44 }
  - { offsetInCU: 0x2EC2D, offset: 0x2EC2D, size: 0x8, addend: 0x0, symName: __ZNSt3__110unique_ptrINS_11__hash_nodeINS_17__hash_value_typeI3PSKP8PSObjectEEPvEENS_22__hash_node_destructorINS_9allocatorIS8_EEEEED1B7v160006Ev, symObjAddr: 0x6F14, symBinAddr: 0x1000085FC, symSize: 0x2C }
  - { offsetInCU: 0x2EC63, offset: 0x2EC63, size: 0x8, addend: 0x0, symName: __ZNSt3__14pairINS_15__hash_iteratorIPNS_11__hash_nodeINS_17__hash_value_typeI3PSKP8PSObjectEEPvEEEEbEC1B7v160006ISB_RbLS8_0EEEOT_OT0_, symObjAddr: 0x6F40, symBinAddr: 0x100008628, symSize: 0x3C }
  - { offsetInCU: 0x2ECC1, offset: 0x2ECC1, size: 0x8, addend: 0x0, symName: __ZNSt3__116allocator_traitsINS_9allocatorINS_11__hash_nodeINS_17__hash_value_typeI3PSKP8PSObjectEEPvEEEEE8allocateB7v160006ERSA_m, symObjAddr: 0x6F7C, symBinAddr: 0x100008664, symSize: 0x2C }
  - { offsetInCU: 0x2ECF4, offset: 0x2ECF4, size: 0x8, addend: 0x0, symName: __ZNSt3__122__hash_node_destructorINS_9allocatorINS_11__hash_nodeINS_17__hash_value_typeI3PSKP8PSObjectEEPvEEEEEC1B7v160006ERSA_b, symObjAddr: 0x6FA8, symBinAddr: 0x100008690, symSize: 0x48 }
  - { offsetInCU: 0x2ED42, offset: 0x2ED42, size: 0x8, addend: 0x0, symName: __ZNSt3__110unique_ptrINS_11__hash_nodeINS_17__hash_value_typeI3PSKP8PSObjectEEPvEENS_22__hash_node_destructorINS_9allocatorIS8_EEEEEC1B7v160006ILb1EvEEPS8_NS_16__dependent_typeINS_27__unique_ptr_deleter_sfinaeISC_EEXT_EE20__good_rval_ref_typeE, symObjAddr: 0x6FF0, symBinAddr: 0x1000086D8, symSize: 0x3C }
  - { offsetInCU: 0x2ED93, offset: 0x2ED93, size: 0x8, addend: 0x0, symName: __ZNSt3__116allocator_traitsINS_9allocatorINS_11__hash_nodeINS_17__hash_value_typeI3PSKP8PSObjectEEPvEEEEE9constructB7v160006INS_4pairIKS4_S6_EEJRKNS_21piecewise_construct_tENS_5tupleIJRSE_EEENSJ_IJEEEEvEEvRSA_PT_DpOT0_, symObjAddr: 0x702C, symBinAddr: 0x100008714, symSize: 0x44 }
  - { offsetInCU: 0x2EE12, offset: 0x2EE12, size: 0x8, addend: 0x0, symName: __ZNSt3__110unique_ptrINS_11__hash_nodeINS_17__hash_value_typeI3PSKP8PSObjectEEPvEENS_22__hash_node_destructorINS_9allocatorIS8_EEEEE11get_deleterB7v160006Ev, symObjAddr: 0x7070, symBinAddr: 0x100008758, symSize: 0x24 }
  - { offsetInCU: 0x2EE38, offset: 0x2EE38, size: 0x8, addend: 0x0, symName: __ZNSt3__19allocatorINS_11__hash_nodeINS_17__hash_value_typeI3PSKP8PSObjectEEPvEEE8allocateB7v160006Em, symObjAddr: 0x7094, symBinAddr: 0x10000877C, symSize: 0x58 }
  - { offsetInCU: 0x2EE77, offset: 0x2EE77, size: 0x8, addend: 0x0, symName: __ZNSt3__116allocator_traitsINS_9allocatorINS_11__hash_nodeINS_17__hash_value_typeI3PSKP8PSObjectEEPvEEEEE8max_sizeB7v160006ISA_vEEmRKSA_, symObjAddr: 0x70EC, symBinAddr: 0x1000087D4, symSize: 0x24 }
  - { offsetInCU: 0x2EEA5, offset: 0x2EEA5, size: 0x8, addend: 0x0, symName: __ZNKSt3__19allocatorINS_11__hash_nodeINS_17__hash_value_typeI3PSKP8PSObjectEEPvEEE8max_sizeB7v160006Ev, symObjAddr: 0x71A4, symBinAddr: 0x10000888C, symSize: 0x14 }
  - { offsetInCU: 0x2EECB, offset: 0x2EECB, size: 0x8, addend: 0x0, symName: __ZNSt3__122__hash_node_destructorINS_9allocatorINS_11__hash_nodeINS_17__hash_value_typeI3PSKP8PSObjectEEPvEEEEEC2B7v160006ERSA_b, symObjAddr: 0x7208, symBinAddr: 0x1000088F0, symSize: 0x38 }
  - { offsetInCU: 0x2EF13, offset: 0x2EF13, size: 0x8, addend: 0x0, symName: __ZNSt3__110unique_ptrINS_11__hash_nodeINS_17__hash_value_typeI3PSKP8PSObjectEEPvEENS_22__hash_node_destructorINS_9allocatorIS8_EEEEEC2B7v160006ILb1EvEEPS8_NS_16__dependent_typeINS_27__unique_ptr_deleter_sfinaeISC_EEXT_EE20__good_rval_ref_typeE, symObjAddr: 0x7240, symBinAddr: 0x100008928, symSize: 0x48 }
  - { offsetInCU: 0x2EF64, offset: 0x2EF64, size: 0x8, addend: 0x0, symName: __ZNSt3__117__compressed_pairIPNS_11__hash_nodeINS_17__hash_value_typeI3PSKP8PSObjectEEPvEENS_22__hash_node_destructorINS_9allocatorIS8_EEEEEC1B7v160006IRS9_SD_EEOT_OT0_, symObjAddr: 0x7288, symBinAddr: 0x100008970, symSize: 0x3C }
  - { offsetInCU: 0x2EFBC, offset: 0x2EFBC, size: 0x8, addend: 0x0, symName: __ZNSt3__117__compressed_pairIPNS_11__hash_nodeINS_17__hash_value_typeI3PSKP8PSObjectEEPvEENS_22__hash_node_destructorINS_9allocatorIS8_EEEEEC2B7v160006IRS9_SD_EEOT_OT0_, symObjAddr: 0x72C4, symBinAddr: 0x1000089AC, symSize: 0x48 }
  - { offsetInCU: 0x2F014, offset: 0x2F014, size: 0x8, addend: 0x0, symName: __ZNSt3__122__compressed_pair_elemIPNS_11__hash_nodeINS_17__hash_value_typeI3PSKP8PSObjectEEPvEELi0ELb0EEC2B7v160006IRS9_vEEOT_, symObjAddr: 0x730C, symBinAddr: 0x1000089F4, symSize: 0x24 }
  - { offsetInCU: 0x2F056, offset: 0x2F056, size: 0x8, addend: 0x0, symName: __ZNSt3__122__compressed_pair_elemINS_22__hash_node_destructorINS_9allocatorINS_11__hash_nodeINS_17__hash_value_typeI3PSKP8PSObjectEEPvEEEEEELi1ELb0EEC2B7v160006ISC_vEEOT_, symObjAddr: 0x7330, symBinAddr: 0x100008A18, symSize: 0x24 }
  - { offsetInCU: 0x2F098, offset: 0x2F098, size: 0x8, addend: 0x0, symName: __ZNSt3__19allocatorINS_11__hash_nodeINS_17__hash_value_typeI3PSKP8PSObjectEEPvEEE9constructB7v160006INS_4pairIKS3_S5_EEJRKNS_21piecewise_construct_tENS_5tupleIJRSC_EEENSH_IJEEEEEEvPT_DpOT0_, symObjAddr: 0x7354, symBinAddr: 0x100008A3C, symSize: 0x44 }
  - { offsetInCU: 0x2F114, offset: 0x2F114, size: 0x8, addend: 0x0, symName: __ZNSt3__14pairIK3PSKP8PSObjectEC1B7v160006IJRS2_EJEEENS_21piecewise_construct_tENS_5tupleIJDpT_EEENS9_IJDpT0_EEE, symObjAddr: 0x7398, symBinAddr: 0x100008A80, symSize: 0x44 }
  - { offsetInCU: 0x2F17B, offset: 0x2F17B, size: 0x8, addend: 0x0, symName: __ZNSt3__14pairIK3PSKP8PSObjectEC1B7v160006IJRS2_EJEJLm0EEJEEENS_21piecewise_construct_tERNS_5tupleIJDpT_EEERNS9_IJDpT0_EEENS_15__tuple_indicesIJXspT1_EEEENSI_IJXspT2_EEEE, symObjAddr: 0x73DC, symBinAddr: 0x100008AC4, symSize: 0x3C }
  - { offsetInCU: 0x2F20B, offset: 0x2F20B, size: 0x8, addend: 0x0, symName: __ZNSt3__14pairIK3PSKP8PSObjectEC2B7v160006IJRS2_EJEJLm0EEJEEENS_21piecewise_construct_tERNS_5tupleIJDpT_EEERNS9_IJDpT0_EEENS_15__tuple_indicesIJXspT1_EEEENSI_IJXspT2_EEEE, symObjAddr: 0x7418, symBinAddr: 0x100008B00, symSize: 0x48 }
  - { offsetInCU: 0x2F29B, offset: 0x2F29B, size: 0x8, addend: 0x0, symName: __ZNSt3__112__tuple_leafILm0ERK3PSKLb0EE3getB7v160006Ev, symObjAddr: 0x7484, symBinAddr: 0x100008B6C, symSize: 0x18 }
  - { offsetInCU: 0x2F2C1, offset: 0x2F2C1, size: 0x8, addend: 0x0, symName: __ZNSt3__117__compressed_pairIPNS_11__hash_nodeINS_17__hash_value_typeI3PSKP8PSObjectEEPvEENS_22__hash_node_destructorINS_9allocatorIS8_EEEEE6secondB7v160006Ev, symObjAddr: 0x749C, symBinAddr: 0x100008B84, symSize: 0x28 }
  - { offsetInCU: 0x2F2E7, offset: 0x2F2E7, size: 0x8, addend: 0x0, symName: __ZNSt3__122__compressed_pair_elemINS_22__hash_node_destructorINS_9allocatorINS_11__hash_nodeINS_17__hash_value_typeI3PSKP8PSObjectEEPvEEEEEELi1ELb0EE5__getB7v160006Ev, symObjAddr: 0x74C4, symBinAddr: 0x100008BAC, symSize: 0x14 }
  - { offsetInCU: 0x2F30D, offset: 0x2F30D, size: 0x8, addend: 0x0, symName: __ZNSt3__117__compressed_pairImNS_22__unordered_map_hasherI3PSKNS_17__hash_value_typeIS2_P8PSObjectEENS_4hashIS2_EENS_8equal_toIS2_EELb1EEEE5firstB7v160006Ev, symObjAddr: 0x74D8, symBinAddr: 0x100008BC0, symSize: 0x24 }
  - { offsetInCU: 0x2F333, offset: 0x2F333, size: 0x8, addend: 0x0, symName: __ZNSt3__117__compressed_pairIfNS_21__unordered_map_equalI3PSKNS_17__hash_value_typeIS2_P8PSObjectEENS_8equal_toIS2_EENS_4hashIS2_EELb1EEEE5firstB7v160006Ev, symObjAddr: 0x74FC, symBinAddr: 0x100008BE4, symSize: 0x24 }
  - { offsetInCU: 0x2F359, offset: 0x2F359, size: 0x8, addend: 0x0, symName: __ZNSt3__122__compressed_pair_elemIfLi0ELb0EE5__getB7v160006Ev, symObjAddr: 0x7520, symBinAddr: 0x100008C08, symSize: 0x14 }
  - { offsetInCU: 0x2F37F, offset: 0x2F37F, size: 0x8, addend: 0x0, symName: __ZNSt3__112__hash_tableINS_17__hash_value_typeI3PSKP8PSObjectEENS_22__unordered_map_hasherIS2_S5_NS_4hashIS2_EENS_8equal_toIS2_EELb1EEENS_21__unordered_map_equalIS2_S5_SA_S8_Lb1EEENS_9allocatorIS5_EEE8__rehashILb1EEEvm, symObjAddr: 0x7534, symBinAddr: 0x100008C1C, symSize: 0x1A8 }
  - { offsetInCU: 0x2F3CF, offset: 0x2F3CF, size: 0x8, addend: 0x0, symName: __ZNSt3__112__hash_tableINS_17__hash_value_typeI3PSKP8PSObjectEENS_22__unordered_map_hasherIS2_S5_NS_4hashIS2_EENS_8equal_toIS2_EELb1EEENS_21__unordered_map_equalIS2_S5_SA_S8_Lb1EEENS_9allocatorIS5_EEE11__do_rehashILb1EEEvm, symObjAddr: 0x76DC, symBinAddr: 0x100008DC4, symSize: 0x290 }
  - { offsetInCU: 0x2F4B2, offset: 0x2F4B2, size: 0x8, addend: 0x0, symName: __ZNSt3__110unique_ptrIA_PNS_16__hash_node_baseIPNS_11__hash_nodeINS_17__hash_value_typeI3PSKP8PSObjectEEPvEEEENS_25__bucket_list_deallocatorINS_9allocatorISC_EEEEE11get_deleterB7v160006Ev, symObjAddr: 0x79E8, symBinAddr: 0x1000090D0, symSize: 0x24 }
  - { offsetInCU: 0x2F4D8, offset: 0x2F4D8, size: 0x8, addend: 0x0, symName: __ZNSt3__110unique_ptrIA_PNS_16__hash_node_baseIPNS_11__hash_nodeINS_17__hash_value_typeI3PSKP8PSObjectEEPvEEEENS_25__bucket_list_deallocatorINS_9allocatorISC_EEEEE5resetB7v160006IPSC_EENS_9enable_ifIXsr28_CheckArrayPointerConversionIT_EE5valueEvE4typeESM_, symObjAddr: 0x7A0C, symBinAddr: 0x1000090F4, symSize: 0x78 }
  - { offsetInCU: 0x2F525, offset: 0x2F525, size: 0x8, addend: 0x0, symName: __ZNSt3__116allocator_traitsINS_9allocatorIPNS_16__hash_node_baseIPNS_11__hash_nodeINS_17__hash_value_typeI3PSKP8PSObjectEEPvEEEEEEE8allocateB7v160006ERSE_m, symObjAddr: 0x7A84, symBinAddr: 0x10000916C, symSize: 0x2C }
  - { offsetInCU: 0x2F558, offset: 0x2F558, size: 0x8, addend: 0x0, symName: __ZNSt3__19allocatorIPNS_16__hash_node_baseIPNS_11__hash_nodeINS_17__hash_value_typeI3PSKP8PSObjectEEPvEEEEE8allocateB7v160006Em, symObjAddr: 0x7AB0, symBinAddr: 0x100009198, symSize: 0x58 }
  - { offsetInCU: 0x2F597, offset: 0x2F597, size: 0x8, addend: 0x0, symName: __ZNSt3__116allocator_traitsINS_9allocatorIPNS_16__hash_node_baseIPNS_11__hash_nodeINS_17__hash_value_typeI3PSKP8PSObjectEEPvEEEEEEE8max_sizeB7v160006ISE_vEEmRKSE_, symObjAddr: 0x7B08, symBinAddr: 0x1000091F0, symSize: 0x24 }
  - { offsetInCU: 0x2F5C5, offset: 0x2F5C5, size: 0x8, addend: 0x0, symName: __ZNKSt3__19allocatorIPNS_16__hash_node_baseIPNS_11__hash_nodeINS_17__hash_value_typeI3PSKP8PSObjectEEPvEEEEE8max_sizeB7v160006Ev, symObjAddr: 0x7B2C, symBinAddr: 0x100009214, symSize: 0x14 }
  - { offsetInCU: 0x2F5F5, offset: 0x2F5F5, size: 0x8, addend: 0x0, symName: __ZNKSt3__16__lessImmEclB7v160006ERKmS3_, symObjAddr: 0x7BB0, symBinAddr: 0x100009298, symSize: 0x34 }
  - { offsetInCU: 0x2F637, offset: 0x2F637, size: 0x8, addend: 0x0, symName: __ZNKSt3__117__compressed_pairIPNS_11__hash_nodeINS_17__hash_value_typeI3PSKP8PSObjectEEPvEENS_22__hash_node_destructorINS_9allocatorIS8_EEEEE5firstB7v160006Ev, symObjAddr: 0x7BE4, symBinAddr: 0x1000092CC, symSize: 0x24 }
  - { offsetInCU: 0x2F65D, offset: 0x2F65D, size: 0x8, addend: 0x0, symName: __ZNKSt3__122__compressed_pair_elemIPNS_11__hash_nodeINS_17__hash_value_typeI3PSKP8PSObjectEEPvEELi0ELb0EE5__getB7v160006Ev, symObjAddr: 0x7C08, symBinAddr: 0x1000092F0, symSize: 0x14 }
  - { offsetInCU: 0x2F683, offset: 0x2F683, size: 0x8, addend: 0x0, symName: __ZNSt3__117__compressed_pairIPNS_11__hash_nodeINS_17__hash_value_typeI3PSKP8PSObjectEEPvEENS_22__hash_node_destructorINS_9allocatorIS8_EEEEE5firstB7v160006Ev, symObjAddr: 0x7C1C, symBinAddr: 0x100009304, symSize: 0x24 }
  - { offsetInCU: 0x2F6A9, offset: 0x2F6A9, size: 0x8, addend: 0x0, symName: __ZNSt3__122__compressed_pair_elemIPNS_11__hash_nodeINS_17__hash_value_typeI3PSKP8PSObjectEEPvEELi0ELb0EE5__getB7v160006Ev, symObjAddr: 0x7C40, symBinAddr: 0x100009328, symSize: 0x14 }
  - { offsetInCU: 0x2F6CF, offset: 0x2F6CF, size: 0x8, addend: 0x0, symName: __ZNSt3__110unique_ptrINS_11__hash_nodeINS_17__hash_value_typeI3PSKP8PSObjectEEPvEENS_22__hash_node_destructorINS_9allocatorIS8_EEEEED2B7v160006Ev, symObjAddr: 0x7C54, symBinAddr: 0x10000933C, symSize: 0x30 }
  - { offsetInCU: 0x2F6F9, offset: 0x2F6F9, size: 0x8, addend: 0x0, symName: __ZNSt3__110unique_ptrINS_11__hash_nodeINS_17__hash_value_typeI3PSKP8PSObjectEEPvEENS_22__hash_node_destructorINS_9allocatorIS8_EEEEE5resetB7v160006EPS8_, symObjAddr: 0x7C84, symBinAddr: 0x10000936C, symSize: 0x78 }
  - { offsetInCU: 0x2F73D, offset: 0x2F73D, size: 0x8, addend: 0x0, symName: __ZNSt3__122__hash_node_destructorINS_9allocatorINS_11__hash_nodeINS_17__hash_value_typeI3PSKP8PSObjectEEPvEEEEEclB7v160006EPS9_, symObjAddr: 0x7CFC, symBinAddr: 0x1000093E4, symSize: 0x88 }
  - { offsetInCU: 0x2F772, offset: 0x2F772, size: 0x8, addend: 0x0, symName: __ZNSt3__14pairINS_15__hash_iteratorIPNS_11__hash_nodeINS_17__hash_value_typeI3PSKP8PSObjectEEPvEEEEbEC2B7v160006ISB_RbLS8_0EEEOT_OT0_, symObjAddr: 0x7D84, symBinAddr: 0x10000946C, symSize: 0x38 }
  - { offsetInCU: 0x2F7D0, offset: 0x2F7D0, size: 0x8, addend: 0x0, symName: __ZNSt3__15tupleIJRK3PSKEEC1B7v160006INS_4_AndELi0EEES3_, symObjAddr: 0x7DBC, symBinAddr: 0x1000094A4, symSize: 0x34 }
  - { offsetInCU: 0x2F818, offset: 0x2F818, size: 0x8, addend: 0x0, symName: __ZNSt3__15tupleIJRK3PSKEEC2B7v160006INS_4_AndELi0EEES3_, symObjAddr: 0x7DF0, symBinAddr: 0x1000094D8, symSize: 0x34 }
  - { offsetInCU: 0x2F860, offset: 0x2F860, size: 0x8, addend: 0x0, symName: __ZNSt3__112__tuple_implINS_15__tuple_indicesIJLm0EEEEJRK3PSKEEC1B7v160006IJLm0EEJS5_EJEJEJS5_EEENS1_IJXspT_EEEENS_13__tuple_typesIJDpT0_EEENS1_IJXspT1_EEEENS9_IJDpT2_EEEDpOT3_, symObjAddr: 0x7E24, symBinAddr: 0x10000950C, symSize: 0x34 }
  - { offsetInCU: 0x2F8F5, offset: 0x2F8F5, size: 0x8, addend: 0x0, symName: __ZNSt3__112__tuple_implINS_15__tuple_indicesIJLm0EEEEJRK3PSKEEC2B7v160006IJLm0EEJS5_EJEJEJS5_EEENS1_IJXspT_EEEENS_13__tuple_typesIJDpT0_EEENS1_IJXspT1_EEEENS9_IJDpT2_EEEDpOT3_, symObjAddr: 0x7E58, symBinAddr: 0x100009540, symSize: 0x34 }
  - { offsetInCU: 0x2F98A, offset: 0x2F98A, size: 0x8, addend: 0x0, symName: __ZNSt3__112__tuple_leafILm0ERK3PSKLb0EEC2B7v160006IS3_vEEOT_, symObjAddr: 0x7E8C, symBinAddr: 0x100009574, symSize: 0x20 }
  - { offsetInCU: 0x2F9D7, offset: 0x2F9D7, size: 0x8, addend: 0x0, symName: __ZNKSt3__16__lessIffEclB7v160006ERKfS3_, symObjAddr: 0x7F68, symBinAddr: 0x100009650, symSize: 0x34 }
  - { offsetInCU: 0x2FA19, offset: 0x2FA19, size: 0x8, addend: 0x0, symName: __ZN15PSModuleManagerC2Ev, symObjAddr: 0x8044, symBinAddr: 0x10000972C, symSize: 0x44 }
  - { offsetInCU: 0x2FA45, offset: 0x2FA45, size: 0x8, addend: 0x0, symName: __ZN15PSModuleManagerD0Ev, symObjAddr: 0x8088, symBinAddr: 0x100009770, symSize: 0x30 }
  - { offsetInCU: 0x2FA6F, offset: 0x2FA6F, size: 0x8, addend: 0x0, symName: __ZN15PSModuleManagerD2Ev, symObjAddr: 0x80B8, symBinAddr: 0x1000097A0, symSize: 0x2C }
  - { offsetInCU: 0x2FA99, offset: 0x2FA99, size: 0x8, addend: 0x0, symName: __ZN19PSControllerManagerC2Ev, symObjAddr: 0x80E4, symBinAddr: 0x1000097CC, symSize: 0x54 }
  - { offsetInCU: 0x2FAC3, offset: 0x2FAC3, size: 0x8, addend: 0x0, symName: __ZN19PSControllerManagerD0Ev, symObjAddr: 0x8138, symBinAddr: 0x100009820, symSize: 0x30 }
  - { offsetInCU: 0x2FAED, offset: 0x2FAED, size: 0x8, addend: 0x0, symName: __ZN19PSControllerManager6updateEv, symObjAddr: 0x8168, symBinAddr: 0x100009850, symSize: 0x28 }
  - { offsetInCU: 0x2FB13, offset: 0x2FB13, size: 0x8, addend: 0x0, symName: __ZN19PSControllerManagerD2Ev, symObjAddr: 0x8190, symBinAddr: 0x100009878, symSize: 0x2C }
  - { offsetInCU: 0x2FB3D, offset: 0x2FB3D, size: 0x8, addend: 0x0, symName: __ZN14PSSceneManagerC2Ev, symObjAddr: 0x81BC, symBinAddr: 0x1000098A4, symSize: 0x54 }
  - { offsetInCU: 0x2FB67, offset: 0x2FB67, size: 0x8, addend: 0x0, symName: __ZN14PSSceneManagerD0Ev, symObjAddr: 0x8210, symBinAddr: 0x1000098F8, symSize: 0x30 }
  - { offsetInCU: 0x2FB91, offset: 0x2FB91, size: 0x8, addend: 0x0, symName: __ZN14PSSceneManagerD2Ev, symObjAddr: 0x8240, symBinAddr: 0x100009928, symSize: 0x2C }
  - { offsetInCU: 0x2FBBB, offset: 0x2FBBB, size: 0x8, addend: 0x0, symName: __ZN7PSSynthC2Ev, symObjAddr: 0x826C, symBinAddr: 0x100009954, symSize: 0x34 }
  - { offsetInCU: 0x2FBE5, offset: 0x2FBE5, size: 0x8, addend: 0x0, symName: __ZN7PSSynthD2Ev, symObjAddr: 0x82A0, symBinAddr: 0x100009988, symSize: 0x14 }
  - { offsetInCU: 0x2FC0F, offset: 0x2FC0F, size: 0x8, addend: 0x0, symName: __ZN18PSObjectCollection7getItemI7PSSceneEEPT_RK3PSK, symObjAddr: 0x82B4, symBinAddr: 0x10000999C, symSize: 0x88 }
  - { offsetInCU: 0x2FC5A, offset: 0x2FC5A, size: 0x8, addend: 0x0, symName: __ZN18PSObjectCollection7addItemI8PSModuleEEPT_S3_, symObjAddr: 0x833C, symBinAddr: 0x100009A24, symSize: 0x70 }
  - { offsetInCU: 0x2FCB3, offset: 0x2FCB3, size: 0x8, addend: 0x0, symName: __ZN7PSScene8activateEv, symObjAddr: 0x83AC, symBinAddr: 0x100009A94, symSize: 0x30 }
  - { offsetInCU: 0x2FCD9, offset: 0x2FCD9, size: 0x8, addend: 0x0, symName: __ZN8PSConfigC2EPKc, symObjAddr: 0x83DC, symBinAddr: 0x100009AC4, symSize: 0x80 }
  - { offsetInCU: 0x2FD11, offset: 0x2FD11, size: 0x8, addend: 0x0, symName: __ZNSt3__112basic_stringIcNS_11char_traitsIcEENS_9allocatorIcEEEC1B7v160006Ev, symObjAddr: 0x845C, symBinAddr: 0x100009B44, symSize: 0x2C }
  - { offsetInCU: 0x2FD3B, offset: 0x2FD3B, size: 0x8, addend: 0x0, symName: __ZN8PSConfig8loadJsonEPKc, symObjAddr: 0x8488, symBinAddr: 0x100009B70, symSize: 0x308 }
  - { offsetInCU: 0x2FD9F, offset: 0x2FD9F, size: 0x8, addend: 0x0, symName: __ZNSt3__112basic_stringIcNS_11char_traitsIcEENS_9allocatorIcEEEaSB7v160006EOS5_, symObjAddr: 0x8790, symBinAddr: 0x100009E78, symSize: 0x34 }
  - { offsetInCU: 0x2FDD4, offset: 0x2FDD4, size: 0x8, addend: 0x0, symName: __ZNSt3__112basic_stringIcNS_11char_traitsIcEENS_9allocatorIcEEEC2B7v160006Ev, symObjAddr: 0x87C4, symBinAddr: 0x100009EAC, symSize: 0x4C }
  - { offsetInCU: 0x2FDFE, offset: 0x2FDFE, size: 0x8, addend: 0x0, symName: __ZNSt3__117__compressed_pairINS_12basic_stringIcNS_11char_traitsIcEENS_9allocatorIcEEE5__repES5_EC1B7v160006INS_18__default_init_tagESA_EEOT_OT0_, symObjAddr: 0x8810, symBinAddr: 0x100009EF8, symSize: 0x3C }
  - { offsetInCU: 0x2FE56, offset: 0x2FE56, size: 0x8, addend: 0x0, symName: __ZNSt3__117__compressed_pairINS_12basic_stringIcNS_11char_traitsIcEENS_9allocatorIcEEE5__repES5_EC2B7v160006INS_18__default_init_tagESA_EEOT_OT0_, symObjAddr: 0x884C, symBinAddr: 0x100009F34, symSize: 0x3C }
  - { offsetInCU: 0x2FEAE, offset: 0x2FEAE, size: 0x8, addend: 0x0, symName: __ZNSt3__122__compressed_pair_elemINS_12basic_stringIcNS_11char_traitsIcEENS_9allocatorIcEEE5__repELi0ELb0EEC2B7v160006ENS_18__default_init_tagE, symObjAddr: 0x8888, symBinAddr: 0x100009F70, symSize: 0x14 }
  - { offsetInCU: 0x2FEE3, offset: 0x2FEE3, size: 0x8, addend: 0x0, symName: __ZNSt3__122__compressed_pair_elemINS_9allocatorIcEELi1ELb1EEC2B7v160006ENS_18__default_init_tagE, symObjAddr: 0x889C, symBinAddr: 0x100009F84, symSize: 0x2C }
  - { offsetInCU: 0x2FF18, offset: 0x2FF18, size: 0x8, addend: 0x0, symName: __ZNSt3__19allocatorIcEC2B7v160006Ev, symObjAddr: 0x88C8, symBinAddr: 0x100009FB0, symSize: 0x2C }
  - { offsetInCU: 0x2FF42, offset: 0x2FF42, size: 0x8, addend: 0x0, symName: __ZNSt3__116__non_trivial_ifILb1ENS_9allocatorIcEEEC2B7v160006Ev, symObjAddr: 0x88F4, symBinAddr: 0x100009FDC, symSize: 0x14 }
  - { offsetInCU: 0x30011, offset: 0x30011, size: 0x8, addend: 0x0, symName: __ZNSt3__114basic_ifstreamIcNS_11char_traitsIcEEEC1EPKcj, symObjAddr: 0x8908, symBinAddr: 0x100009FF0, symSize: 0x16C }
  - { offsetInCU: 0x3005B, offset: 0x3005B, size: 0x8, addend: 0x0, symName: __ZNKSt3__114basic_ifstreamIcNS_11char_traitsIcEEE7is_openEv, symObjAddr: 0x8A74, symBinAddr: 0x10000A15C, symSize: 0x2C }
  - { offsetInCU: 0x30083, offset: 0x30083, size: 0x8, addend: 0x0, symName: __ZNSt3__113basic_ostreamIcNS_11char_traitsIcEEElsB7v160006EPFRS3_S4_E, symObjAddr: 0x8AE8, symBinAddr: 0x10000A1D0, symSize: 0x2C }
  - { offsetInCU: 0x3011E, offset: 0x3011E, size: 0x8, addend: 0x0, symName: __ZNSt3__118basic_stringstreamIcNS_11char_traitsIcEENS_9allocatorIcEEEC1B7v160006Ev, symObjAddr: 0x8BB0, symBinAddr: 0x10000A298, symSize: 0x104 }
  - { offsetInCU: 0x30148, offset: 0x30148, size: 0x8, addend: 0x0, symName: __ZNKSt3__114basic_ifstreamIcNS_11char_traitsIcEEE5rdbufEv, symObjAddr: 0x8CB4, symBinAddr: 0x10000A39C, symSize: 0x18 }
  - { offsetInCU: 0x30170, offset: 0x30170, size: 0x8, addend: 0x0, symName: __ZNKSt3__118basic_stringstreamIcNS_11char_traitsIcEENS_9allocatorIcEEE3strB7v160006Ev, symObjAddr: 0x8CCC, symBinAddr: 0x10000A3B4, symSize: 0x30 }
  - { offsetInCU: 0x30196, offset: 0x30196, size: 0x8, addend: 0x0, symName: __ZNSt3__114basic_ifstreamIcNS_11char_traitsIcEEE5closeEv, symObjAddr: 0x8CFC, symBinAddr: 0x10000A3E4, symSize: 0x58 }
  - { offsetInCU: 0x301C3, offset: 0x301C3, size: 0x8, addend: 0x0, symName: __ZNSt3__118basic_stringstreamIcNS_11char_traitsIcEENS_9allocatorIcEEED1Ev, symObjAddr: 0x8D54, symBinAddr: 0x10000A43C, symSize: 0x40 }
  - { offsetInCU: 0x301F5, offset: 0x301F5, size: 0x8, addend: 0x0, symName: __ZNSt3__114basic_ifstreamIcNS_11char_traitsIcEEED1Ev, symObjAddr: 0x8D94, symBinAddr: 0x10000A47C, symSize: 0x40 }
  - { offsetInCU: 0x30222, offset: 0x30222, size: 0x8, addend: 0x0, symName: __ZNSt3__19basic_iosIcNS_11char_traitsIcEEEC2B7v160006Ev, symObjAddr: 0x8DD4, symBinAddr: 0x10000A4BC, symSize: 0x44 }
  - { offsetInCU: 0x3024C, offset: 0x3024C, size: 0x8, addend: 0x0, symName: __ZNSt3__113basic_istreamIcNS_11char_traitsIcEEEC2B7v160006EPNS_15basic_streambufIcS2_EE, symObjAddr: 0x8E18, symBinAddr: 0x10000A500, symSize: 0x64 }
  - { offsetInCU: 0x30291, offset: 0x30291, size: 0x8, addend: 0x0, symName: __ZNSt3__19basic_iosIcNS_11char_traitsIcEEE8setstateB7v160006Ej, symObjAddr: 0x8E7C, symBinAddr: 0x10000A564, symSize: 0x2C }
  - { offsetInCU: 0x302C6, offset: 0x302C6, size: 0x8, addend: 0x0, symName: __ZNSt3__18ios_baseC2B7v160006Ev, symObjAddr: 0x8EA8, symBinAddr: 0x10000A590, symSize: 0x24 }
  - { offsetInCU: 0x302F0, offset: 0x302F0, size: 0x8, addend: 0x0, symName: __ZNSt3__19basic_iosIcNS_11char_traitsIcEEE4initB7v160006EPNS_15basic_streambufIcS2_EE, symObjAddr: 0x8ECC, symBinAddr: 0x10000A5B4, symSize: 0x44 }
  - { offsetInCU: 0x30327, offset: 0x30327, size: 0x8, addend: 0x0, symName: __ZNSt3__111char_traitsIcE3eofEv, symObjAddr: 0x8F10, symBinAddr: 0x10000A5F8, symSize: 0x8 }
  - { offsetInCU: 0x3033B, offset: 0x3033B, size: 0x8, addend: 0x0, symName: __ZNSt3__18ios_base8setstateB7v160006Ej, symObjAddr: 0x8F18, symBinAddr: 0x10000A600, symSize: 0x34 }
  - { offsetInCU: 0x30372, offset: 0x30372, size: 0x8, addend: 0x0, symName: __ZNKSt3__113basic_filebufIcNS_11char_traitsIcEEE7is_openEv, symObjAddr: 0x8F4C, symBinAddr: 0x10000A634, symSize: 0x24 }
  - { offsetInCU: 0x3039A, offset: 0x3039A, size: 0x8, addend: 0x0, symName: __ZNSt3__111char_traitsIcE6lengthEPKc, symObjAddr: 0x915C, symBinAddr: 0x10000A844, symSize: 0x34 }
  - { offsetInCU: 0x303DE, offset: 0x303DE, size: 0x8, addend: 0x0, symName: __ZNKSt3__113basic_ostreamIcNS_11char_traitsIcEEE6sentrycvbB7v160006Ev, symObjAddr: 0x9190, symBinAddr: 0x10000A878, symSize: 0x1C }
  - { offsetInCU: 0x30404, offset: 0x30404, size: 0x8, addend: 0x0, symName: __ZNSt3__119ostreambuf_iteratorIcNS_11char_traitsIcEEEC1B7v160006ERNS_13basic_ostreamIcS2_EE, symObjAddr: 0x93EC, symBinAddr: 0x10000AAD4, symSize: 0x34 }
  - { offsetInCU: 0x3043C, offset: 0x3043C, size: 0x8, addend: 0x0, symName: __ZNKSt3__18ios_base5flagsB7v160006Ev, symObjAddr: 0x9420, symBinAddr: 0x10000AB08, symSize: 0x18 }
  - { offsetInCU: 0x30464, offset: 0x30464, size: 0x8, addend: 0x0, symName: __ZNKSt3__19basic_iosIcNS_11char_traitsIcEEE4fillB7v160006Ev, symObjAddr: 0x9438, symBinAddr: 0x10000AB20, symSize: 0x64 }
  - { offsetInCU: 0x3048C, offset: 0x3048C, size: 0x8, addend: 0x0, symName: __ZNKSt3__119ostreambuf_iteratorIcNS_11char_traitsIcEEE6failedB7v160006Ev, symObjAddr: 0x949C, symBinAddr: 0x10000AB84, symSize: 0x24 }
  - { offsetInCU: 0x304B2, offset: 0x304B2, size: 0x8, addend: 0x0, symName: __ZNKSt3__18ios_base5widthB7v160006Ev, symObjAddr: 0x94C0, symBinAddr: 0x10000ABA8, symSize: 0x18 }
  - { offsetInCU: 0x304DA, offset: 0x304DA, size: 0x8, addend: 0x0, symName: __ZNSt3__115basic_streambufIcNS_11char_traitsIcEEE5sputnB7v160006EPKcl, symObjAddr: 0x94D8, symBinAddr: 0x10000ABC0, symSize: 0x3C }
  - { offsetInCU: 0x3051C, offset: 0x3051C, size: 0x8, addend: 0x0, symName: __ZNSt3__112basic_stringIcNS_11char_traitsIcEENS_9allocatorIcEEEC1B7v160006Emc, symObjAddr: 0x9514, symBinAddr: 0x10000ABFC, symSize: 0x3C }
  - { offsetInCU: 0x30564, offset: 0x30564, size: 0x8, addend: 0x0, symName: __ZNSt3__112basic_stringIcNS_11char_traitsIcEENS_9allocatorIcEEE4dataB7v160006Ev, symObjAddr: 0x9550, symBinAddr: 0x10000AC38, symSize: 0x28 }
  - { offsetInCU: 0x3058A, offset: 0x3058A, size: 0x8, addend: 0x0, symName: __ZNSt3__18ios_base5widthB7v160006El, symObjAddr: 0x9578, symBinAddr: 0x10000AC60, symSize: 0x2C }
  - { offsetInCU: 0x305D0, offset: 0x305D0, size: 0x8, addend: 0x0, symName: __ZNSt3__112basic_stringIcNS_11char_traitsIcEENS_9allocatorIcEEEC2B7v160006Emc, symObjAddr: 0x95A4, symBinAddr: 0x10000AC8C, symSize: 0x54 }
  - { offsetInCU: 0x30618, offset: 0x30618, size: 0x8, addend: 0x0, symName: __ZNSt3__112basic_stringIcNS_11char_traitsIcEENS_9allocatorIcEEE13__get_pointerB7v160006Ev, symObjAddr: 0x960C, symBinAddr: 0x10000ACF4, symSize: 0x54 }
  - { offsetInCU: 0x3063E, offset: 0x3063E, size: 0x8, addend: 0x0, symName: __ZNSt3__112basic_stringIcNS_11char_traitsIcEENS_9allocatorIcEEE18__get_long_pointerB7v160006Ev, symObjAddr: 0x9660, symBinAddr: 0x10000AD48, symSize: 0x28 }
  - { offsetInCU: 0x30664, offset: 0x30664, size: 0x8, addend: 0x0, symName: __ZNSt3__112basic_stringIcNS_11char_traitsIcEENS_9allocatorIcEEE19__get_short_pointerB7v160006Ev, symObjAddr: 0x9688, symBinAddr: 0x10000AD70, symSize: 0x28 }
  - { offsetInCU: 0x3068A, offset: 0x3068A, size: 0x8, addend: 0x0, symName: __ZNSt3__114pointer_traitsIPcE10pointer_toB7v160006ERc, symObjAddr: 0x96B0, symBinAddr: 0x10000AD98, symSize: 0x14 }
  - { offsetInCU: 0x306AD, offset: 0x306AD, size: 0x8, addend: 0x0, symName: __ZNSt3__119ostreambuf_iteratorIcNS_11char_traitsIcEEEC2B7v160006ERNS_13basic_ostreamIcS2_EE, symObjAddr: 0x96C4, symBinAddr: 0x10000ADAC, symSize: 0x54 }
  - { offsetInCU: 0x306E5, offset: 0x306E5, size: 0x8, addend: 0x0, symName: __ZNKSt3__19basic_iosIcNS_11char_traitsIcEEE5rdbufB7v160006Ev, symObjAddr: 0x9718, symBinAddr: 0x10000AE00, symSize: 0x24 }
  - { offsetInCU: 0x3070D, offset: 0x3070D, size: 0x8, addend: 0x0, symName: __ZNKSt3__18ios_base5rdbufB7v160006Ev, symObjAddr: 0x973C, symBinAddr: 0x10000AE24, symSize: 0x18 }
  - { offsetInCU: 0x30733, offset: 0x30733, size: 0x8, addend: 0x0, symName: __ZNSt3__111char_traitsIcE11eq_int_typeEii, symObjAddr: 0x9754, symBinAddr: 0x10000AE3C, symSize: 0x28 }
  - { offsetInCU: 0x30764, offset: 0x30764, size: 0x8, addend: 0x0, symName: __ZNKSt3__19basic_iosIcNS_11char_traitsIcEEE5widenB7v160006Ec, symObjAddr: 0x977C, symBinAddr: 0x10000AE64, symSize: 0x84 }
  - { offsetInCU: 0x307D2, offset: 0x307D2, size: 0x8, addend: 0x0, symName: __ZNKSt3__15ctypeIcE5widenB7v160006Ec, symObjAddr: 0x982C, symBinAddr: 0x10000AF14, symSize: 0x38 }
  - { offsetInCU: 0x30807, offset: 0x30807, size: 0x8, addend: 0x0, symName: __ZNSt3__114basic_iostreamIcNS_11char_traitsIcEEEC2B7v160006EPNS_15basic_streambufIcS2_EE, symObjAddr: 0x9888, symBinAddr: 0x10000AF70, symSize: 0xAC }
  - { offsetInCU: 0x3084D, offset: 0x3084D, size: 0x8, addend: 0x0, symName: __ZNSt3__115basic_stringbufIcNS_11char_traitsIcEENS_9allocatorIcEEEC1B7v160006Ej, symObjAddr: 0x9934, symBinAddr: 0x10000B01C, symSize: 0x34 }
  - { offsetInCU: 0x30885, offset: 0x30885, size: 0x8, addend: 0x0, symName: __ZNSt3__113basic_ostreamIcNS_11char_traitsIcEEEC2B7v160006Ev, symObjAddr: 0x9968, symBinAddr: 0x10000B050, symSize: 0x34 }
  - { offsetInCU: 0x308BC, offset: 0x308BC, size: 0x8, addend: 0x0, symName: __ZNSt3__115basic_stringbufIcNS_11char_traitsIcEENS_9allocatorIcEEEC2B7v160006Ej, symObjAddr: 0x999C, symBinAddr: 0x10000B084, symSize: 0x60 }
  - { offsetInCU: 0x308F4, offset: 0x308F4, size: 0x8, addend: 0x0, symName: __ZNSt3__118basic_stringstreamIcNS_11char_traitsIcEENS_9allocatorIcEEED2Ev, symObjAddr: 0x99FC, symBinAddr: 0x10000B0E4, symSize: 0x6C }
  - { offsetInCU: 0x3092E, offset: 0x3092E, size: 0x8, addend: 0x0, symName: __ZThn16_NSt3__118basic_stringstreamIcNS_11char_traitsIcEENS_9allocatorIcEEED1Ev, symObjAddr: 0x9A68, symBinAddr: 0x10000B150, symSize: 0x1C }
  - { offsetInCU: 0x30945, offset: 0x30945, size: 0x8, addend: 0x0, symName: __ZTv0_n24_NSt3__118basic_stringstreamIcNS_11char_traitsIcEENS_9allocatorIcEEED1Ev, symObjAddr: 0x9A84, symBinAddr: 0x10000B16C, symSize: 0x28 }
  - { offsetInCU: 0x30961, offset: 0x30961, size: 0x8, addend: 0x0, symName: __ZNSt3__115basic_stringbufIcNS_11char_traitsIcEENS_9allocatorIcEEED1Ev, symObjAddr: 0x9AAC, symBinAddr: 0x10000B194, symSize: 0x2C }
  - { offsetInCU: 0x3098E, offset: 0x3098E, size: 0x8, addend: 0x0, symName: __ZNSt3__115basic_stringbufIcNS_11char_traitsIcEENS_9allocatorIcEEED2Ev, symObjAddr: 0x9AD8, symBinAddr: 0x10000B1C0, symSize: 0x48 }
  - { offsetInCU: 0x309BB, offset: 0x309BB, size: 0x8, addend: 0x0, symName: __ZNSt3__114basic_ifstreamIcNS_11char_traitsIcEEED2Ev, symObjAddr: 0x9B20, symBinAddr: 0x10000B208, symSize: 0x64 }
  - { offsetInCU: 0x309F5, offset: 0x309F5, size: 0x8, addend: 0x0, symName: __ZTv0_n24_NSt3__114basic_ifstreamIcNS_11char_traitsIcEEED1Ev, symObjAddr: 0x9B84, symBinAddr: 0x10000B26C, symSize: 0x28 }
  - { offsetInCU: 0x30A0C, offset: 0x30A0C, size: 0x8, addend: 0x0, symName: __ZNSt3__112basic_stringIcNS_11char_traitsIcEENS_9allocatorIcEEE13__move_assignB7v160006ERS5_NS_17integral_constantIbLb1EEE, symObjAddr: 0x9BAC, symBinAddr: 0x10000B294, symSize: 0xC8 }
  - { offsetInCU: 0x30A4F, offset: 0x30A4F, size: 0x8, addend: 0x0, symName: __ZNSt3__116allocator_traitsINS_9allocatorIcEEE10deallocateB7v160006ERS2_Pcm, symObjAddr: 0x9C74, symBinAddr: 0x10000B35C, symSize: 0x34 }
  - { offsetInCU: 0x30A91, offset: 0x30A91, size: 0x8, addend: 0x0, symName: __ZNSt3__112basic_stringIcNS_11char_traitsIcEENS_9allocatorIcEEE7__allocB7v160006Ev, symObjAddr: 0x9CA8, symBinAddr: 0x10000B390, symSize: 0x24 }
  - { offsetInCU: 0x30AB7, offset: 0x30AB7, size: 0x8, addend: 0x0, symName: __ZNKSt3__112basic_stringIcNS_11char_traitsIcEENS_9allocatorIcEEE14__get_long_capB7v160006Ev, symObjAddr: 0x9CCC, symBinAddr: 0x10000B3B4, symSize: 0x30 }
  - { offsetInCU: 0x30ADD, offset: 0x30ADD, size: 0x8, addend: 0x0, symName: __ZNSt3__112basic_stringIcNS_11char_traitsIcEENS_9allocatorIcEEE19__move_assign_allocB7v160006ERS5_, symObjAddr: 0x9CFC, symBinAddr: 0x10000B3E4, symSize: 0x2C }
  - { offsetInCU: 0x30B12, offset: 0x30B12, size: 0x8, addend: 0x0, symName: __ZNSt3__112basic_stringIcNS_11char_traitsIcEENS_9allocatorIcEEE16__set_short_sizeB7v160006Em, symObjAddr: 0x9D28, symBinAddr: 0x10000B410, symSize: 0x78 }
  - { offsetInCU: 0x30B47, offset: 0x30B47, size: 0x8, addend: 0x0, symName: __ZNSt3__111char_traitsIcE6assignERcRKc, symObjAddr: 0x9DA0, symBinAddr: 0x10000B488, symSize: 0x24 }
  - { offsetInCU: 0x30B78, offset: 0x30B78, size: 0x8, addend: 0x0, symName: __ZNSt3__19allocatorIcE10deallocateB7v160006EPcm, symObjAddr: 0x9DC4, symBinAddr: 0x10000B4AC, symSize: 0x40 }
  - { offsetInCU: 0x30BBA, offset: 0x30BBA, size: 0x8, addend: 0x0, symName: __ZNSt3__117__compressed_pairINS_12basic_stringIcNS_11char_traitsIcEENS_9allocatorIcEEE5__repES5_E6secondB7v160006Ev, symObjAddr: 0x9E04, symBinAddr: 0x10000B4EC, symSize: 0x24 }
  - { offsetInCU: 0x30BE0, offset: 0x30BE0, size: 0x8, addend: 0x0, symName: __ZNSt3__122__compressed_pair_elemINS_9allocatorIcEELi1ELb1EE5__getB7v160006Ev, symObjAddr: 0x9E28, symBinAddr: 0x10000B510, symSize: 0x14 }
  - { offsetInCU: 0x30C06, offset: 0x30C06, size: 0x8, addend: 0x0, symName: __ZNSt3__112basic_stringIcNS_11char_traitsIcEENS_9allocatorIcEEE19__move_assign_allocB7v160006ERS5_NS_17integral_constantIbLb1EEE, symObjAddr: 0x9E3C, symBinAddr: 0x10000B524, symSize: 0x38 }
  - { offsetInCU: 0x30D6F, offset: 0x30D6F, size: 0x8, addend: 0x0, symName: __ZN10JSONParserC1ERKNSt3__112basic_stringIcNS0_11char_traitsIcEENS0_9allocatorIcEEEE, symObjAddr: 0x9E74, symBinAddr: 0x10000B55C, symSize: 0x34 }
  - { offsetInCU: 0x30DA7, offset: 0x30DA7, size: 0x8, addend: 0x0, symName: __ZN10JSONParser5parseEv, symObjAddr: 0x9EA8, symBinAddr: 0x10000B590, symSize: 0x3C }
  - { offsetInCU: 0x30DCD, offset: 0x30DCD, size: 0x8, addend: 0x0, symName: __ZN8PSConfig14loadParametersER9JSONValue, symObjAddr: 0x9EE4, symBinAddr: 0x10000B5CC, symSize: 0x420 }
  - { offsetInCU: 0x30EC9, offset: 0x30EC9, size: 0x8, addend: 0x0, symName: __ZN8PSConfig15loadControllersER9JSONValue, symObjAddr: 0xA304, symBinAddr: 0x10000B9EC, symSize: 0x410 }
  - { offsetInCU: 0x30FE0, offset: 0x30FE0, size: 0x8, addend: 0x0, symName: __ZN9JSONValueD1Ev, symObjAddr: 0xA714, symBinAddr: 0x10000BDFC, symSize: 0x2C }
  - { offsetInCU: 0x3100C, offset: 0x3100C, size: 0x8, addend: 0x0, symName: __ZN10JSONParserC2ERKNSt3__112basic_stringIcNS0_11char_traitsIcEENS0_9allocatorIcEEEE, symObjAddr: 0xA740, symBinAddr: 0x10000BE28, symSize: 0x24 }
  - { offsetInCU: 0x31044, offset: 0x31044, size: 0x8, addend: 0x0, symName: __ZN10JSONParser14skipWhitespaceEv, symObjAddr: 0xA764, symBinAddr: 0x10000BE4C, symSize: 0x5C }
  - { offsetInCU: 0x3106A, offset: 0x3106A, size: 0x8, addend: 0x0, symName: __ZN10JSONParser10parseValueEv, symObjAddr: 0xA7C0, symBinAddr: 0x10000BEA8, symSize: 0x114 }
  - { offsetInCU: 0x31090, offset: 0x31090, size: 0x8, addend: 0x0, symName: __ZNK10JSONParser14getCurrentCharEv, symObjAddr: 0xA8FC, symBinAddr: 0x10000BFE4, symSize: 0x78 }
  - { offsetInCU: 0x310B5, offset: 0x310B5, size: 0x8, addend: 0x0, symName: __Z8__istypeim, symObjAddr: 0xA974, symBinAddr: 0x10000C05C, symSize: 0x8C }
  - { offsetInCU: 0x310F0, offset: 0x310F0, size: 0x8, addend: 0x0, symName: __Z7isasciii, symObjAddr: 0xAA00, symBinAddr: 0x10000C0E8, symSize: 0x24 }
  - { offsetInCU: 0x3111C, offset: 0x3111C, size: 0x8, addend: 0x0, symName: __ZNKSt3__112basic_stringIcNS_11char_traitsIcEENS_9allocatorIcEEEixB7v160006Em, symObjAddr: 0xAA24, symBinAddr: 0x10000C10C, symSize: 0x30 }
  - { offsetInCU: 0x31151, offset: 0x31151, size: 0x8, addend: 0x0, symName: __ZN10JSONParser11parseObjectEv, symObjAddr: 0xAA54, symBinAddr: 0x10000C13C, symSize: 0x2D4 }
  - { offsetInCU: 0x311A9, offset: 0x311A9, size: 0x8, addend: 0x0, symName: __ZN10JSONParser10parseArrayEv, symObjAddr: 0xAD28, symBinAddr: 0x10000C410, symSize: 0x1E4 }
  - { offsetInCU: 0x311DE, offset: 0x311DE, size: 0x8, addend: 0x0, symName: __ZN10JSONParser11parseStringEv, symObjAddr: 0xAF0C, symBinAddr: 0x10000C5F4, symSize: 0x100 }
  - { offsetInCU: 0x31213, offset: 0x31213, size: 0x8, addend: 0x0, symName: __ZN10JSONParser9parseBoolEv, symObjAddr: 0xB00C, symBinAddr: 0x10000C6F4, symSize: 0x174 }
  - { offsetInCU: 0x31248, offset: 0x31248, size: 0x8, addend: 0x0, symName: __ZN10JSONParser9parseNullEv, symObjAddr: 0xB180, symBinAddr: 0x10000C868, symSize: 0x98 }
  - { offsetInCU: 0x3127D, offset: 0x3127D, size: 0x8, addend: 0x0, symName: __ZN10JSONParser11parseNumberEv, symObjAddr: 0xB218, symBinAddr: 0x10000C900, symSize: 0x114 }
  - { offsetInCU: 0x312C0, offset: 0x312C0, size: 0x8, addend: 0x0, symName: __ZN9JSONValueC1Ev, symObjAddr: 0xB32C, symBinAddr: 0x10000CA14, symSize: 0x2C }
  - { offsetInCU: 0x312EC, offset: 0x312EC, size: 0x8, addend: 0x0, symName: __ZN10JSONParser11getNextCharEv, symObjAddr: 0xB358, symBinAddr: 0x10000CA40, symSize: 0x84 }
  - { offsetInCU: 0x31312, offset: 0x31312, size: 0x8, addend: 0x0, symName: __ZNSt3__13mapINS_12basic_stringIcNS_11char_traitsIcEENS_9allocatorIcEEEE9JSONValueNS_4lessIS6_EENS4_INS_4pairIKS6_S7_EEEEEixERSB_, symObjAddr: 0xB3DC, symBinAddr: 0x10000CAC4, symSize: 0x80 }
  - { offsetInCU: 0x31349, offset: 0x31349, size: 0x8, addend: 0x0, symName: __ZN9JSONValueaSERKS_, symObjAddr: 0xB45C, symBinAddr: 0x10000CB44, symSize: 0x84 }
  - { offsetInCU: 0x3137A, offset: 0x3137A, size: 0x8, addend: 0x0, symName: __ZN9JSONValueC2Ev, symObjAddr: 0xB4E0, symBinAddr: 0x10000CBC8, symSize: 0x48 }
  - { offsetInCU: 0x313A6, offset: 0x313A6, size: 0x8, addend: 0x0, symName: __ZNSt3__16vectorI9JSONValueNS_9allocatorIS1_EEEC1B7v160006Ev, symObjAddr: 0xB528, symBinAddr: 0x10000CC10, symSize: 0x2C }
  - { offsetInCU: 0x313D0, offset: 0x313D0, size: 0x8, addend: 0x0, symName: __ZNSt3__13mapINS_12basic_stringIcNS_11char_traitsIcEENS_9allocatorIcEEEE9JSONValueNS_4lessIS6_EENS4_INS_4pairIKS6_S7_EEEEEC1B7v160006Ev, symObjAddr: 0xB554, symBinAddr: 0x10000CC3C, symSize: 0x2C }
  - { offsetInCU: 0x313FA, offset: 0x313FA, size: 0x8, addend: 0x0, symName: __ZNSt3__16vectorI9JSONValueNS_9allocatorIS1_EEEC2B7v160006Ev, symObjAddr: 0xB580, symBinAddr: 0x10000CC68, symSize: 0x58 }
  - { offsetInCU: 0x3142A, offset: 0x3142A, size: 0x8, addend: 0x0, symName: __ZNSt3__117__compressed_pairIP9JSONValueNS_9allocatorIS1_EEEC1B7v160006IDnNS_18__default_init_tagEEEOT_OT0_, symObjAddr: 0xB5D8, symBinAddr: 0x10000CCC0, symSize: 0x3C }
  - { offsetInCU: 0x31482, offset: 0x31482, size: 0x8, addend: 0x0, symName: __ZNSt3__117__compressed_pairIP9JSONValueNS_9allocatorIS1_EEEC2B7v160006IDnNS_18__default_init_tagEEEOT_OT0_, symObjAddr: 0xB624, symBinAddr: 0x10000CD0C, symSize: 0x40 }
  - { offsetInCU: 0x314DA, offset: 0x314DA, size: 0x8, addend: 0x0, symName: __ZNSt3__122__compressed_pair_elemIP9JSONValueLi0ELb0EEC2B7v160006IDnvEEOT_, symObjAddr: 0xB664, symBinAddr: 0x10000CD4C, symSize: 0x1C }
  - { offsetInCU: 0x3151C, offset: 0x3151C, size: 0x8, addend: 0x0, symName: __ZNSt3__122__compressed_pair_elemINS_9allocatorI9JSONValueEELi1ELb1EEC2B7v160006ENS_18__default_init_tagE, symObjAddr: 0xB680, symBinAddr: 0x10000CD68, symSize: 0x2C }
  - { offsetInCU: 0x31551, offset: 0x31551, size: 0x8, addend: 0x0, symName: __ZNSt3__19allocatorI9JSONValueEC2B7v160006Ev, symObjAddr: 0xB6AC, symBinAddr: 0x10000CD94, symSize: 0x2C }
  - { offsetInCU: 0x3157B, offset: 0x3157B, size: 0x8, addend: 0x0, symName: __ZNSt3__116__non_trivial_ifILb1ENS_9allocatorI9JSONValueEEEC2B7v160006Ev, symObjAddr: 0xB6D8, symBinAddr: 0x10000CDC0, symSize: 0x14 }
  - { offsetInCU: 0x315A5, offset: 0x315A5, size: 0x8, addend: 0x0, symName: __ZNSt3__13mapINS_12basic_stringIcNS_11char_traitsIcEENS_9allocatorIcEEEE9JSONValueNS_4lessIS6_EENS4_INS_4pairIKS6_S7_EEEEEC2B7v160006Ev, symObjAddr: 0xB6EC, symBinAddr: 0x10000CDD4, symSize: 0x40 }
  - { offsetInCU: 0x315CF, offset: 0x315CF, size: 0x8, addend: 0x0, symName: __ZNSt3__119__map_value_compareINS_12basic_stringIcNS_11char_traitsIcEENS_9allocatorIcEEEENS_12__value_typeIS6_9JSONValueEENS_4lessIS6_EELb1EEC1B7v160006ESB_, symObjAddr: 0xB72C, symBinAddr: 0x10000CE14, symSize: 0x2C }
  - { offsetInCU: 0x31608, offset: 0x31608, size: 0x8, addend: 0x0, symName: __ZNSt3__16__treeINS_12__value_typeINS_12basic_stringIcNS_11char_traitsIcEENS_9allocatorIcEEEE9JSONValueEENS_19__map_value_compareIS7_S9_NS_4lessIS7_EELb1EEENS5_IS9_EEEC1ERKSD_, symObjAddr: 0xB758, symBinAddr: 0x10000CE40, symSize: 0x34 }
  - { offsetInCU: 0x31643, offset: 0x31643, size: 0x8, addend: 0x0, symName: __ZNSt3__119__map_value_compareINS_12basic_stringIcNS_11char_traitsIcEENS_9allocatorIcEEEENS_12__value_typeIS6_9JSONValueEENS_4lessIS6_EELb1EEC2B7v160006ESB_, symObjAddr: 0xB78C, symBinAddr: 0x10000CE74, symSize: 0x14 }
  - { offsetInCU: 0x3167C, offset: 0x3167C, size: 0x8, addend: 0x0, symName: __ZNSt3__16__treeINS_12__value_typeINS_12basic_stringIcNS_11char_traitsIcEENS_9allocatorIcEEEE9JSONValueEENS_19__map_value_compareIS7_S9_NS_4lessIS7_EELb1EEENS5_IS9_EEEC2ERKSD_, symObjAddr: 0xB7A0, symBinAddr: 0x10000CE88, symSize: 0x7C }
  - { offsetInCU: 0x316B7, offset: 0x316B7, size: 0x8, addend: 0x0, symName: __ZNSt3__117__compressed_pairINS_15__tree_end_nodeIPNS_16__tree_node_baseIPvEEEENS_9allocatorINS_11__tree_nodeINS_12__value_typeINS_12basic_stringIcNS_11char_traitsIcEENS7_IcEEEE9JSONValueEES3_EEEEEC1B7v160006ILb1EvEEv, symObjAddr: 0xB81C, symBinAddr: 0x10000CF04, symSize: 0x2C }
  - { offsetInCU: 0x316EC, offset: 0x316EC, size: 0x8, addend: 0x0, symName: __ZNSt3__117__compressed_pairImNS_19__map_value_compareINS_12basic_stringIcNS_11char_traitsIcEENS_9allocatorIcEEEENS_12__value_typeIS7_9JSONValueEENS_4lessIS7_EELb1EEEEC1B7v160006IiRKSD_EEOT_OT0_, symObjAddr: 0xB848, symBinAddr: 0x10000CF30, symSize: 0x3C }
  - { offsetInCU: 0x31744, offset: 0x31744, size: 0x8, addend: 0x0, symName: __ZNSt3__16__treeINS_12__value_typeINS_12basic_stringIcNS_11char_traitsIcEENS_9allocatorIcEEEE9JSONValueEENS_19__map_value_compareIS7_S9_NS_4lessIS7_EELb1EEENS5_IS9_EEE10__end_nodeB7v160006Ev, symObjAddr: 0xB884, symBinAddr: 0x10000CF6C, symSize: 0x2C }
  - { offsetInCU: 0x3176A, offset: 0x3176A, size: 0x8, addend: 0x0, symName: __ZNSt3__16__treeINS_12__value_typeINS_12basic_stringIcNS_11char_traitsIcEENS_9allocatorIcEEEE9JSONValueEENS_19__map_value_compareIS7_S9_NS_4lessIS7_EELb1EEENS5_IS9_EEE12__begin_nodeB7v160006Ev, symObjAddr: 0xB8B0, symBinAddr: 0x10000CF98, symSize: 0x14 }
  - { offsetInCU: 0x31790, offset: 0x31790, size: 0x8, addend: 0x0, symName: __ZNSt3__117__compressed_pairINS_15__tree_end_nodeIPNS_16__tree_node_baseIPvEEEENS_9allocatorINS_11__tree_nodeINS_12__value_typeINS_12basic_stringIcNS_11char_traitsIcEENS7_IcEEEE9JSONValueEES3_EEEEEC2B7v160006ILb1EvEEv, symObjAddr: 0xB8C4, symBinAddr: 0x10000CFAC, symSize: 0x34 }
  - { offsetInCU: 0x317C5, offset: 0x317C5, size: 0x8, addend: 0x0, symName: __ZNSt3__122__compressed_pair_elemINS_15__tree_end_nodeIPNS_16__tree_node_baseIPvEEEELi0ELb0EEC2B7v160006ENS_16__value_init_tagE, symObjAddr: 0xB8F8, symBinAddr: 0x10000CFE0, symSize: 0x2C }
  - { offsetInCU: 0x317FA, offset: 0x317FA, size: 0x8, addend: 0x0, symName: __ZNSt3__122__compressed_pair_elemINS_9allocatorINS_11__tree_nodeINS_12__value_typeINS_12basic_stringIcNS_11char_traitsIcEENS1_IcEEEE9JSONValueEEPvEEEELi1ELb1EEC2B7v160006ENS_16__value_init_tagE, symObjAddr: 0xB924, symBinAddr: 0x10000D00C, symSize: 0x2C }
  - { offsetInCU: 0x3182F, offset: 0x3182F, size: 0x8, addend: 0x0, symName: __ZNSt3__115__tree_end_nodeIPNS_16__tree_node_baseIPvEEEC1B7v160006Ev, symObjAddr: 0xB950, symBinAddr: 0x10000D038, symSize: 0x2C }
  - { offsetInCU: 0x31859, offset: 0x31859, size: 0x8, addend: 0x0, symName: __ZNSt3__115__tree_end_nodeIPNS_16__tree_node_baseIPvEEEC2B7v160006Ev, symObjAddr: 0xB97C, symBinAddr: 0x10000D064, symSize: 0x18 }
  - { offsetInCU: 0x31883, offset: 0x31883, size: 0x8, addend: 0x0, symName: __ZNSt3__19allocatorINS_11__tree_nodeINS_12__value_typeINS_12basic_stringIcNS_11char_traitsIcEENS0_IcEEEE9JSONValueEEPvEEEC2B7v160006Ev, symObjAddr: 0xB994, symBinAddr: 0x10000D07C, symSize: 0x2C }
  - { offsetInCU: 0x318AD, offset: 0x318AD, size: 0x8, addend: 0x0, symName: __ZNSt3__116__non_trivial_ifILb1ENS_9allocatorINS_11__tree_nodeINS_12__value_typeINS_12basic_stringIcNS_11char_traitsIcEENS1_IcEEEE9JSONValueEEPvEEEEEC2B7v160006Ev, symObjAddr: 0xB9C0, symBinAddr: 0x10000D0A8, symSize: 0x14 }
  - { offsetInCU: 0x318D7, offset: 0x318D7, size: 0x8, addend: 0x0, symName: __ZNSt3__117__compressed_pairImNS_19__map_value_compareINS_12basic_stringIcNS_11char_traitsIcEENS_9allocatorIcEEEENS_12__value_typeIS7_9JSONValueEENS_4lessIS7_EELb1EEEEC2B7v160006IiRKSD_EEOT_OT0_, symObjAddr: 0xB9D4, symBinAddr: 0x10000D0BC, symSize: 0x44 }
  - { offsetInCU: 0x3192F, offset: 0x3192F, size: 0x8, addend: 0x0, symName: __ZNSt3__122__compressed_pair_elemINS_19__map_value_compareINS_12basic_stringIcNS_11char_traitsIcEENS_9allocatorIcEEEENS_12__value_typeIS7_9JSONValueEENS_4lessIS7_EELb1EEELi1ELb1EEC2B7v160006IRKSD_vEEOT_, symObjAddr: 0xBA18, symBinAddr: 0x10000D100, symSize: 0x18 }
  - { offsetInCU: 0x31971, offset: 0x31971, size: 0x8, addend: 0x0, symName: __ZNSt3__114pointer_traitsIPNS_15__tree_end_nodeIPNS_16__tree_node_baseIPvEEEEE10pointer_toB7v160006ERS6_, symObjAddr: 0xBA30, symBinAddr: 0x10000D118, symSize: 0x14 }
  - { offsetInCU: 0x31994, offset: 0x31994, size: 0x8, addend: 0x0, symName: __ZNSt3__117__compressed_pairINS_15__tree_end_nodeIPNS_16__tree_node_baseIPvEEEENS_9allocatorINS_11__tree_nodeINS_12__value_typeINS_12basic_stringIcNS_11char_traitsIcEENS7_IcEEEE9JSONValueEES3_EEEEE5firstB7v160006Ev, symObjAddr: 0xBA44, symBinAddr: 0x10000D12C, symSize: 0x24 }
  - { offsetInCU: 0x319BA, offset: 0x319BA, size: 0x8, addend: 0x0, symName: __ZNSt3__122__compressed_pair_elemINS_15__tree_end_nodeIPNS_16__tree_node_baseIPvEEEELi0ELb0EE5__getB7v160006Ev, symObjAddr: 0xBA68, symBinAddr: 0x10000D150, symSize: 0x14 }
  - { offsetInCU: 0x319E0, offset: 0x319E0, size: 0x8, addend: 0x0, symName: __ZNSt3__16__treeINS_12__value_typeINS_12basic_stringIcNS_11char_traitsIcEENS_9allocatorIcEEEE9JSONValueEENS_19__map_value_compareIS7_S9_NS_4lessIS7_EELb1EEENS5_IS9_EEE25__emplace_unique_key_argsIS7_JRKNS_21piecewise_construct_tENS_5tupleIJRKS7_EEENSK_IJEEEEEENS_4pairINS_15__tree_iteratorIS9_PNS_11__tree_nodeIS9_PvEElEEbEERKT_DpOT0_, symObjAddr: 0xBA7C, symBinAddr: 0x10000D164, symSize: 0x100 }
  - { offsetInCU: 0x31AB6, offset: 0x31AB6, size: 0x8, addend: 0x0, symName: __ZNKSt3__115__tree_iteratorINS_12__value_typeINS_12basic_stringIcNS_11char_traitsIcEENS_9allocatorIcEEEE9JSONValueEEPNS_11__tree_nodeIS9_PvEElEptB7v160006Ev, symObjAddr: 0xBBA8, symBinAddr: 0x10000D290, symSize: 0x2C }
  - { offsetInCU: 0x31ADC, offset: 0x31ADC, size: 0x8, addend: 0x0, symName: __ZNSt3__112__value_typeINS_12basic_stringIcNS_11char_traitsIcEENS_9allocatorIcEEEE9JSONValueE11__get_valueB7v160006Ev, symObjAddr: 0xBBD4, symBinAddr: 0x10000D2BC, symSize: 0x24 }
  - { offsetInCU: 0x31B02, offset: 0x31B02, size: 0x8, addend: 0x0, symName: __ZNSt3__16__treeINS_12__value_typeINS_12basic_stringIcNS_11char_traitsIcEENS_9allocatorIcEEEE9JSONValueEENS_19__map_value_compareIS7_S9_NS_4lessIS7_EELb1EEENS5_IS9_EEE12__find_equalIS7_EERPNS_16__tree_node_baseIPvEERPNS_15__tree_end_nodeISK_EERKT_, symObjAddr: 0xBBF8, symBinAddr: 0x10000D2E0, symSize: 0x184 }
  - { offsetInCU: 0x31B6F, offset: 0x31B6F, size: 0x8, addend: 0x0, symName: __ZNSt3__16__treeINS_12__value_typeINS_12basic_stringIcNS_11char_traitsIcEENS_9allocatorIcEEEE9JSONValueEENS_19__map_value_compareIS7_S9_NS_4lessIS7_EELb1EEENS5_IS9_EEE16__construct_nodeIJRKNS_21piecewise_construct_tENS_5tupleIJRKS7_EEENSK_IJEEEEEENS_10unique_ptrINS_11__tree_nodeIS9_PvEENS_22__tree_node_destructorINS5_ISS_EEEEEEDpOT_, symObjAddr: 0xBD7C, symBinAddr: 0x10000D464, symSize: 0x120 }
  - { offsetInCU: 0x31BF8, offset: 0x31BF8, size: 0x8, addend: 0x0, symName: __ZNSt3__16__treeINS_12__value_typeINS_12basic_stringIcNS_11char_traitsIcEENS_9allocatorIcEEEE9JSONValueEENS_19__map_value_compareIS7_S9_NS_4lessIS7_EELb1EEENS5_IS9_EEE16__insert_node_atEPNS_15__tree_end_nodeIPNS_16__tree_node_baseIPvEEEERSK_SK_, symObjAddr: 0xBE9C, symBinAddr: 0x10000D584, symSize: 0xCC }
  - { offsetInCU: 0x31C4D, offset: 0x31C4D, size: 0x8, addend: 0x0, symName: __ZNKSt3__110unique_ptrINS_11__tree_nodeINS_12__value_typeINS_12basic_stringIcNS_11char_traitsIcEENS_9allocatorIcEEEE9JSONValueEEPvEENS_22__tree_node_destructorINS6_ISC_EEEEE3getB7v160006Ev, symObjAddr: 0xBF68, symBinAddr: 0x10000D650, symSize: 0x28 }
  - { offsetInCU: 0x31C73, offset: 0x31C73, size: 0x8, addend: 0x0, symName: __ZNSt3__110unique_ptrINS_11__tree_nodeINS_12__value_typeINS_12basic_stringIcNS_11char_traitsIcEENS_9allocatorIcEEEE9JSONValueEEPvEENS_22__tree_node_destructorINS6_ISC_EEEEE7releaseB7v160006Ev, symObjAddr: 0xBF90, symBinAddr: 0x10000D678, symSize: 0x44 }
  - { offsetInCU: 0x31CA8, offset: 0x31CA8, size: 0x8, addend: 0x0, symName: __ZNSt3__110unique_ptrINS_11__tree_nodeINS_12__value_typeINS_12basic_stringIcNS_11char_traitsIcEENS_9allocatorIcEEEE9JSONValueEEPvEENS_22__tree_node_destructorINS6_ISC_EEEEED1B7v160006Ev, symObjAddr: 0xBFD4, symBinAddr: 0x10000D6BC, symSize: 0x2C }
  - { offsetInCU: 0x31CD2, offset: 0x31CD2, size: 0x8, addend: 0x0, symName: __ZNSt3__115__tree_iteratorINS_12__value_typeINS_12basic_stringIcNS_11char_traitsIcEENS_9allocatorIcEEEE9JSONValueEEPNS_11__tree_nodeIS9_PvEElEC1B7v160006ESD_, symObjAddr: 0xC000, symBinAddr: 0x10000D6E8, symSize: 0x34 }
  - { offsetInCU: 0x31D11, offset: 0x31D11, size: 0x8, addend: 0x0, symName: __ZNSt3__14pairINS_15__tree_iteratorINS_12__value_typeINS_12basic_stringIcNS_11char_traitsIcEENS_9allocatorIcEEEE9JSONValueEEPNS_11__tree_nodeISA_PvEElEEbEC1B7v160006ISF_RbLSC_0EEEOT_OT0_, symObjAddr: 0xC034, symBinAddr: 0x10000D71C, symSize: 0x3C }
  - { offsetInCU: 0x31D6F, offset: 0x31D6F, size: 0x8, addend: 0x0, symName: __ZNKSt3__16__treeINS_12__value_typeINS_12basic_stringIcNS_11char_traitsIcEENS_9allocatorIcEEEE9JSONValueEENS_19__map_value_compareIS7_S9_NS_4lessIS7_EELb1EEENS5_IS9_EEE6__rootB7v160006Ev, symObjAddr: 0xC070, symBinAddr: 0x10000D758, symSize: 0x28 }
  - { offsetInCU: 0x31D95, offset: 0x31D95, size: 0x8, addend: 0x0, symName: __ZNKSt3__16__treeINS_12__value_typeINS_12basic_stringIcNS_11char_traitsIcEENS_9allocatorIcEEEE9JSONValueEENS_19__map_value_compareIS7_S9_NS_4lessIS7_EELb1EEENS5_IS9_EEE10__root_ptrEv, symObjAddr: 0xC098, symBinAddr: 0x10000D780, symSize: 0x24 }
  - { offsetInCU: 0x31DBB, offset: 0x31DBB, size: 0x8, addend: 0x0, symName: __ZNSt3__16__treeINS_12__value_typeINS_12basic_stringIcNS_11char_traitsIcEENS_9allocatorIcEEEE9JSONValueEENS_19__map_value_compareIS7_S9_NS_4lessIS7_EELb1EEENS5_IS9_EEE10value_compB7v160006Ev, symObjAddr: 0xC0BC, symBinAddr: 0x10000D7A4, symSize: 0x28 }
  - { offsetInCU: 0x31DE1, offset: 0x31DE1, size: 0x8, addend: 0x0, symName: __ZNKSt3__119__map_value_compareINS_12basic_stringIcNS_11char_traitsIcEENS_9allocatorIcEEEENS_12__value_typeIS6_9JSONValueEENS_4lessIS6_EELb1EEclB7v160006ERKS6_RKS9_, symObjAddr: 0xC0E4, symBinAddr: 0x10000D7CC, symSize: 0x50 }
  - { offsetInCU: 0x31E25, offset: 0x31E25, size: 0x8, addend: 0x0, symName: __ZNKSt3__119__map_value_compareINS_12basic_stringIcNS_11char_traitsIcEENS_9allocatorIcEEEENS_12__value_typeIS6_9JSONValueEENS_4lessIS6_EELb1EEclB7v160006ERKS9_RKS6_, symObjAddr: 0xC134, symBinAddr: 0x10000D81C, symSize: 0x48 }
  - { offsetInCU: 0x31E69, offset: 0x31E69, size: 0x8, addend: 0x0, symName: __ZNKSt3__16__treeINS_12__value_typeINS_12basic_stringIcNS_11char_traitsIcEENS_9allocatorIcEEEE9JSONValueEENS_19__map_value_compareIS7_S9_NS_4lessIS7_EELb1EEENS5_IS9_EEE10__end_nodeB7v160006Ev, symObjAddr: 0xC17C, symBinAddr: 0x10000D864, symSize: 0x2C }
  - { offsetInCU: 0x31E8F, offset: 0x31E8F, size: 0x8, addend: 0x0, symName: __ZNKSt3__117__compressed_pairINS_15__tree_end_nodeIPNS_16__tree_node_baseIPvEEEENS_9allocatorINS_11__tree_nodeINS_12__value_typeINS_12basic_stringIcNS_11char_traitsIcEENS7_IcEEEE9JSONValueEES3_EEEEE5firstB7v160006Ev, symObjAddr: 0xC1A8, symBinAddr: 0x10000D890, symSize: 0x24 }
  - { offsetInCU: 0x31EB5, offset: 0x31EB5, size: 0x8, addend: 0x0, symName: __ZNKSt3__122__compressed_pair_elemINS_15__tree_end_nodeIPNS_16__tree_node_baseIPvEEEELi0ELb0EE5__getB7v160006Ev, symObjAddr: 0xC1CC, symBinAddr: 0x10000D8B4, symSize: 0x14 }
  - { offsetInCU: 0x31EDB, offset: 0x31EDB, size: 0x8, addend: 0x0, symName: __ZNSt3__117__compressed_pairImNS_19__map_value_compareINS_12basic_stringIcNS_11char_traitsIcEENS_9allocatorIcEEEENS_12__value_typeIS7_9JSONValueEENS_4lessIS7_EELb1EEEE6secondB7v160006Ev, symObjAddr: 0xC1E0, symBinAddr: 0x10000D8C8, symSize: 0x24 }
  - { offsetInCU: 0x31F01, offset: 0x31F01, size: 0x8, addend: 0x0, symName: __ZNSt3__122__compressed_pair_elemINS_19__map_value_compareINS_12basic_stringIcNS_11char_traitsIcEENS_9allocatorIcEEEENS_12__value_typeIS7_9JSONValueEENS_4lessIS7_EELb1EEELi1ELb1EE5__getB7v160006Ev, symObjAddr: 0xC204, symBinAddr: 0x10000D8EC, symSize: 0x14 }
  - { offsetInCU: 0x31F27, offset: 0x31F27, size: 0x8, addend: 0x0, symName: __ZNKSt3__14lessINS_12basic_stringIcNS_11char_traitsIcEENS_9allocatorIcEEEEEclB7v160006ERKS6_S9_, symObjAddr: 0xC218, symBinAddr: 0x10000D900, symSize: 0x34 }
  - { offsetInCU: 0x31F6B, offset: 0x31F6B, size: 0x8, addend: 0x0, symName: __ZNKSt3__112__value_typeINS_12basic_stringIcNS_11char_traitsIcEENS_9allocatorIcEEEE9JSONValueE11__get_valueB7v160006Ev, symObjAddr: 0xC24C, symBinAddr: 0x10000D934, symSize: 0x24 }
  - { offsetInCU: 0x31F91, offset: 0x31F91, size: 0x8, addend: 0x0, symName: __ZNKSt3__112basic_stringIcNS_11char_traitsIcEENS_9allocatorIcEEE7compareB7v160006ERKS5_, symObjAddr: 0xC2A8, symBinAddr: 0x10000D990, symSize: 0x4C }
  - { offsetInCU: 0x31FC8, offset: 0x31FC8, size: 0x8, addend: 0x0, symName: __ZNKSt3__112basic_stringIcNS_11char_traitsIcEENS_9allocatorIcEEE7compareINS_17basic_string_viewIcS2_EEEENS_9enable_ifIXsr33__can_be_converted_to_string_viewIcS2_T_EE5valueEiE4typeERKSA_, symObjAddr: 0xC2F4, symBinAddr: 0x10000D9DC, symSize: 0x12C }
  - { offsetInCU: 0x32045, offset: 0x32045, size: 0x8, addend: 0x0, symName: __ZNKSt3__112basic_stringIcNS_11char_traitsIcEENS_9allocatorIcEEEcvNS_17basic_string_viewIcS2_EEB7v160006Ev, symObjAddr: 0xC420, symBinAddr: 0x10000DB08, symSize: 0x50 }
  - { offsetInCU: 0x3206B, offset: 0x3206B, size: 0x8, addend: 0x0, symName: __ZNKSt3__117basic_string_viewIcNS_11char_traitsIcEEE4sizeB7v160006Ev, symObjAddr: 0xC470, symBinAddr: 0x10000DB58, symSize: 0x18 }
  - { offsetInCU: 0x32091, offset: 0x32091, size: 0x8, addend: 0x0, symName: __ZNSt3__111char_traitsIcE7compareEPKcS3_m, symObjAddr: 0xC488, symBinAddr: 0x10000DB70, symSize: 0x6C }
  - { offsetInCU: 0x320D0, offset: 0x320D0, size: 0x8, addend: 0x0, symName: __ZNKSt3__117basic_string_viewIcNS_11char_traitsIcEEE4dataB7v160006Ev, symObjAddr: 0xC4F4, symBinAddr: 0x10000DBDC, symSize: 0x18 }
  - { offsetInCU: 0x320F6, offset: 0x320F6, size: 0x8, addend: 0x0, symName: __ZNSt3__117basic_string_viewIcNS_11char_traitsIcEEEC1B7v160006EPKcm, symObjAddr: 0xC5C0, symBinAddr: 0x10000DCA8, symSize: 0x3C }
  - { offsetInCU: 0x3213E, offset: 0x3213E, size: 0x8, addend: 0x0, symName: __ZNSt3__117basic_string_viewIcNS_11char_traitsIcEEEC2B7v160006EPKcm, symObjAddr: 0xC5FC, symBinAddr: 0x10000DCE4, symSize: 0x50 }
  - { offsetInCU: 0x32186, offset: 0x32186, size: 0x8, addend: 0x0, symName: __ZNSt3__16__treeINS_12__value_typeINS_12basic_stringIcNS_11char_traitsIcEENS_9allocatorIcEEEE9JSONValueEENS_19__map_value_compareIS7_S9_NS_4lessIS7_EELb1EEENS5_IS9_EEE12__node_allocB7v160006Ev, symObjAddr: 0xC684, symBinAddr: 0x10000DD6C, symSize: 0x28 }
  - { offsetInCU: 0x321AC, offset: 0x321AC, size: 0x8, addend: 0x0, symName: __ZNSt3__116allocator_traitsINS_9allocatorINS_11__tree_nodeINS_12__value_typeINS_12basic_stringIcNS_11char_traitsIcEENS1_IcEEEE9JSONValueEEPvEEEEE8allocateB7v160006ERSD_m, symObjAddr: 0xC6AC, symBinAddr: 0x10000DD94, symSize: 0x2C }
  - { offsetInCU: 0x321DF, offset: 0x321DF, size: 0x8, addend: 0x0, symName: __ZNSt3__122__tree_node_destructorINS_9allocatorINS_11__tree_nodeINS_12__value_typeINS_12basic_stringIcNS_11char_traitsIcEENS1_IcEEEE9JSONValueEEPvEEEEEC1B7v160006ERSD_b, symObjAddr: 0xC6D8, symBinAddr: 0x10000DDC0, symSize: 0x48 }
  - { offsetInCU: 0x3222D, offset: 0x3222D, size: 0x8, addend: 0x0, symName: __ZNSt3__110unique_ptrINS_11__tree_nodeINS_12__value_typeINS_12basic_stringIcNS_11char_traitsIcEENS_9allocatorIcEEEE9JSONValueEEPvEENS_22__tree_node_destructorINS6_ISC_EEEEEC1B7v160006ILb1EvEEPSC_NS_16__dependent_typeINS_27__unique_ptr_deleter_sfinaeISF_EEXT_EE20__good_rval_ref_typeE, symObjAddr: 0xC720, symBinAddr: 0x10000DE08, symSize: 0x3C }
  - { offsetInCU: 0x3227E, offset: 0x3227E, size: 0x8, addend: 0x0, symName: __ZNSt3__116allocator_traitsINS_9allocatorINS_11__tree_nodeINS_12__value_typeINS_12basic_stringIcNS_11char_traitsIcEENS1_IcEEEE9JSONValueEEPvEEEEE9constructB7v160006INS_4pairIKS8_S9_EEJRKNS_21piecewise_construct_tENS_5tupleIJRSH_EEENSM_IJEEEEvEEvRSD_PT_DpOT0_, symObjAddr: 0xC75C, symBinAddr: 0x10000DE44, symSize: 0x44 }
  - { offsetInCU: 0x322FD, offset: 0x322FD, size: 0x8, addend: 0x0, symName: __ZNSt3__122__tree_key_value_typesINS_12__value_typeINS_12basic_stringIcNS_11char_traitsIcEENS_9allocatorIcEEEE9JSONValueEEE9__get_ptrB7v160006ERS9_, symObjAddr: 0xC7A0, symBinAddr: 0x10000DE88, symSize: 0x24 }
  - { offsetInCU: 0x32321, offset: 0x32321, size: 0x8, addend: 0x0, symName: __ZNKSt3__110unique_ptrINS_11__tree_nodeINS_12__value_typeINS_12basic_stringIcNS_11char_traitsIcEENS_9allocatorIcEEEE9JSONValueEEPvEENS_22__tree_node_destructorINS6_ISC_EEEEEptB7v160006Ev, symObjAddr: 0xC7C4, symBinAddr: 0x10000DEAC, symSize: 0x28 }
  - { offsetInCU: 0x32347, offset: 0x32347, size: 0x8, addend: 0x0, symName: __ZNSt3__110unique_ptrINS_11__tree_nodeINS_12__value_typeINS_12basic_stringIcNS_11char_traitsIcEENS_9allocatorIcEEEE9JSONValueEEPvEENS_22__tree_node_destructorINS6_ISC_EEEEE11get_deleterB7v160006Ev, symObjAddr: 0xC7EC, symBinAddr: 0x10000DED4, symSize: 0x24 }
  - { offsetInCU: 0x3236D, offset: 0x3236D, size: 0x8, addend: 0x0, symName: __ZNSt3__117__compressed_pairINS_15__tree_end_nodeIPNS_16__tree_node_baseIPvEEEENS_9allocatorINS_11__tree_nodeINS_12__value_typeINS_12basic_stringIcNS_11char_traitsIcEENS7_IcEEEE9JSONValueEES3_EEEEE6secondB7v160006Ev, symObjAddr: 0xC810, symBinAddr: 0x10000DEF8, symSize: 0x24 }
  - { offsetInCU: 0x32393, offset: 0x32393, size: 0x8, addend: 0x0, symName: __ZNSt3__122__compressed_pair_elemINS_9allocatorINS_11__tree_nodeINS_12__value_typeINS_12basic_stringIcNS_11char_traitsIcEENS1_IcEEEE9JSONValueEEPvEEEELi1ELb1EE5__getB7v160006Ev, symObjAddr: 0xC834, symBinAddr: 0x10000DF1C, symSize: 0x14 }
  - { offsetInCU: 0x323B9, offset: 0x323B9, size: 0x8, addend: 0x0, symName: __ZNSt3__19allocatorINS_11__tree_nodeINS_12__value_typeINS_12basic_stringIcNS_11char_traitsIcEENS0_IcEEEE9JSONValueEEPvEEE8allocateB7v160006Em, symObjAddr: 0xC848, symBinAddr: 0x10000DF30, symSize: 0x5C }
  - { offsetInCU: 0x323F8, offset: 0x323F8, size: 0x8, addend: 0x0, symName: __ZNSt3__116allocator_traitsINS_9allocatorINS_11__tree_nodeINS_12__value_typeINS_12basic_stringIcNS_11char_traitsIcEENS1_IcEEEE9JSONValueEEPvEEEEE8max_sizeB7v160006ISD_vEEmRKSD_, symObjAddr: 0xC8A4, symBinAddr: 0x10000DF8C, symSize: 0x24 }
  - { offsetInCU: 0x32426, offset: 0x32426, size: 0x8, addend: 0x0, symName: __ZNKSt3__19allocatorINS_11__tree_nodeINS_12__value_typeINS_12basic_stringIcNS_11char_traitsIcEENS0_IcEEEE9JSONValueEEPvEEE8max_sizeB7v160006Ev, symObjAddr: 0xC8C8, symBinAddr: 0x10000DFB0, symSize: 0x20 }
  - { offsetInCU: 0x3244C, offset: 0x3244C, size: 0x8, addend: 0x0, symName: __ZNSt3__122__tree_node_destructorINS_9allocatorINS_11__tree_nodeINS_12__value_typeINS_12basic_stringIcNS_11char_traitsIcEENS1_IcEEEE9JSONValueEEPvEEEEEC2B7v160006ERSD_b, symObjAddr: 0xC8E8, symBinAddr: 0x10000DFD0, symSize: 0x38 }
  - { offsetInCU: 0x32494, offset: 0x32494, size: 0x8, addend: 0x0, symName: __ZNSt3__110unique_ptrINS_11__tree_nodeINS_12__value_typeINS_12basic_stringIcNS_11char_traitsIcEENS_9allocatorIcEEEE9JSONValueEEPvEENS_22__tree_node_destructorINS6_ISC_EEEEEC2B7v160006ILb1EvEEPSC_NS_16__dependent_typeINS_27__unique_ptr_deleter_sfinaeISF_EEXT_EE20__good_rval_ref_typeE, symObjAddr: 0xC920, symBinAddr: 0x10000E008, symSize: 0x48 }
  - { offsetInCU: 0x324E5, offset: 0x324E5, size: 0x8, addend: 0x0, symName: __ZNSt3__117__compressed_pairIPNS_11__tree_nodeINS_12__value_typeINS_12basic_stringIcNS_11char_traitsIcEENS_9allocatorIcEEEE9JSONValueEEPvEENS_22__tree_node_destructorINS6_ISC_EEEEEC1B7v160006IRSD_SG_EEOT_OT0_, symObjAddr: 0xC968, symBinAddr: 0x10000E050, symSize: 0x3C }
  - { offsetInCU: 0x3253D, offset: 0x3253D, size: 0x8, addend: 0x0, symName: __ZNSt3__117__compressed_pairIPNS_11__tree_nodeINS_12__value_typeINS_12basic_stringIcNS_11char_traitsIcEENS_9allocatorIcEEEE9JSONValueEEPvEENS_22__tree_node_destructorINS6_ISC_EEEEEC2B7v160006IRSD_SG_EEOT_OT0_, symObjAddr: 0xC9A4, symBinAddr: 0x10000E08C, symSize: 0x48 }
  - { offsetInCU: 0x32595, offset: 0x32595, size: 0x8, addend: 0x0, symName: __ZNSt3__122__compressed_pair_elemIPNS_11__tree_nodeINS_12__value_typeINS_12basic_stringIcNS_11char_traitsIcEENS_9allocatorIcEEEE9JSONValueEEPvEELi0ELb0EEC2B7v160006IRSD_vEEOT_, symObjAddr: 0xC9EC, symBinAddr: 0x10000E0D4, symSize: 0x24 }
  - { offsetInCU: 0x325D7, offset: 0x325D7, size: 0x8, addend: 0x0, symName: __ZNSt3__122__compressed_pair_elemINS_22__tree_node_destructorINS_9allocatorINS_11__tree_nodeINS_12__value_typeINS_12basic_stringIcNS_11char_traitsIcEENS2_IcEEEE9JSONValueEEPvEEEEEELi1ELb0EEC2B7v160006ISF_vEEOT_, symObjAddr: 0xCA10, symBinAddr: 0x10000E0F8, symSize: 0x24 }
  - { offsetInCU: 0x32619, offset: 0x32619, size: 0x8, addend: 0x0, symName: __ZNSt3__19allocatorINS_11__tree_nodeINS_12__value_typeINS_12basic_stringIcNS_11char_traitsIcEENS0_IcEEEE9JSONValueEEPvEEE9constructB7v160006INS_4pairIKS7_S8_EEJRKNS_21piecewise_construct_tENS_5tupleIJRSF_EEENSK_IJEEEEEEvPT_DpOT0_, symObjAddr: 0xCA34, symBinAddr: 0x10000E11C, symSize: 0x44 }
  - { offsetInCU: 0x32695, offset: 0x32695, size: 0x8, addend: 0x0, symName: __ZNSt3__14pairIKNS_12basic_stringIcNS_11char_traitsIcEENS_9allocatorIcEEEE9JSONValueEC1B7v160006IJRS7_EJEEENS_21piecewise_construct_tENS_5tupleIJDpT_EEENSD_IJDpT0_EEE, symObjAddr: 0xCA78, symBinAddr: 0x10000E160, symSize: 0x3C }
  - { offsetInCU: 0x326FC, offset: 0x326FC, size: 0x8, addend: 0x0, symName: __ZNSt3__14pairIKNS_12basic_stringIcNS_11char_traitsIcEENS_9allocatorIcEEEE9JSONValueEC1B7v160006IJRS7_EJEJLm0EEJEEENS_21piecewise_construct_tERNS_5tupleIJDpT_EEERNSD_IJDpT0_EEENS_15__tuple_indicesIJXspT1_EEEENSM_IJXspT2_EEEE, symObjAddr: 0xCAB4, symBinAddr: 0x10000E19C, symSize: 0x3C }
  - { offsetInCU: 0x3278C, offset: 0x3278C, size: 0x8, addend: 0x0, symName: __ZNSt3__14pairIKNS_12basic_stringIcNS_11char_traitsIcEENS_9allocatorIcEEEE9JSONValueEC2B7v160006IJRS7_EJEJLm0EEJEEENS_21piecewise_construct_tERNS_5tupleIJDpT_EEERNSD_IJDpT0_EEENS_15__tuple_indicesIJXspT1_EEEENSM_IJXspT2_EEEE, symObjAddr: 0xCAF0, symBinAddr: 0x10000E1D8, symSize: 0x64 }
  - { offsetInCU: 0x3281C, offset: 0x3281C, size: 0x8, addend: 0x0, symName: __ZNSt3__112__tuple_leafILm0ERKNS_12basic_stringIcNS_11char_traitsIcEENS_9allocatorIcEEEELb0EE3getB7v160006Ev, symObjAddr: 0xCB78, symBinAddr: 0x10000E260, symSize: 0x18 }
  - { offsetInCU: 0x32842, offset: 0x32842, size: 0x8, addend: 0x0, symName: __ZNKSt3__117__compressed_pairIPNS_11__tree_nodeINS_12__value_typeINS_12basic_stringIcNS_11char_traitsIcEENS_9allocatorIcEEEE9JSONValueEEPvEENS_22__tree_node_destructorINS6_ISC_EEEEE5firstB7v160006Ev, symObjAddr: 0xCB90, symBinAddr: 0x10000E278, symSize: 0x24 }
  - { offsetInCU: 0x32868, offset: 0x32868, size: 0x8, addend: 0x0, symName: __ZNKSt3__122__compressed_pair_elemIPNS_11__tree_nodeINS_12__value_typeINS_12basic_stringIcNS_11char_traitsIcEENS_9allocatorIcEEEE9JSONValueEEPvEELi0ELb0EE5__getB7v160006Ev, symObjAddr: 0xCBB4, symBinAddr: 0x10000E29C, symSize: 0x14 }
  - { offsetInCU: 0x3288E, offset: 0x3288E, size: 0x8, addend: 0x0, symName: __ZNSt3__117__compressed_pairIPNS_11__tree_nodeINS_12__value_typeINS_12basic_stringIcNS_11char_traitsIcEENS_9allocatorIcEEEE9JSONValueEEPvEENS_22__tree_node_destructorINS6_ISC_EEEEE6secondB7v160006Ev, symObjAddr: 0xCBC8, symBinAddr: 0x10000E2B0, symSize: 0x28 }
  - { offsetInCU: 0x328B4, offset: 0x328B4, size: 0x8, addend: 0x0, symName: __ZNSt3__122__compressed_pair_elemINS_22__tree_node_destructorINS_9allocatorINS_11__tree_nodeINS_12__value_typeINS_12basic_stringIcNS_11char_traitsIcEENS2_IcEEEE9JSONValueEEPvEEEEEELi1ELb0EE5__getB7v160006Ev, symObjAddr: 0xCBF0, symBinAddr: 0x10000E2D8, symSize: 0x14 }
  - { offsetInCU: 0x328DA, offset: 0x328DA, size: 0x8, addend: 0x0, symName: __ZNSt3__16__treeINS_12__value_typeINS_12basic_stringIcNS_11char_traitsIcEENS_9allocatorIcEEEE9JSONValueEENS_19__map_value_compareIS7_S9_NS_4lessIS7_EELb1EEENS5_IS9_EEE4sizeB7v160006Ev, symObjAddr: 0xCF30, symBinAddr: 0x10000E618, symSize: 0x28 }
  - { offsetInCU: 0x32900, offset: 0x32900, size: 0x8, addend: 0x0, symName: __ZNKSt3__116__tree_node_baseIPvE15__parent_unsafeB7v160006Ev, symObjAddr: 0xCF58, symBinAddr: 0x10000E640, symSize: 0x18 }
  - { offsetInCU: 0x32926, offset: 0x32926, size: 0x8, addend: 0x0, symName: __ZNSt3__116__tree_node_baseIPvE12__set_parentB7v160006EPS2_, symObjAddr: 0xD140, symBinAddr: 0x10000E828, symSize: 0x20 }
  - { offsetInCU: 0x3295B, offset: 0x3295B, size: 0x8, addend: 0x0, symName: __ZNSt3__117__compressed_pairImNS_19__map_value_compareINS_12basic_stringIcNS_11char_traitsIcEENS_9allocatorIcEEEENS_12__value_typeIS7_9JSONValueEENS_4lessIS7_EELb1EEEE5firstB7v160006Ev, symObjAddr: 0xD160, symBinAddr: 0x10000E848, symSize: 0x24 }
  - { offsetInCU: 0x32981, offset: 0x32981, size: 0x8, addend: 0x0, symName: __ZNSt3__117__compressed_pairIPNS_11__tree_nodeINS_12__value_typeINS_12basic_stringIcNS_11char_traitsIcEENS_9allocatorIcEEEE9JSONValueEEPvEENS_22__tree_node_destructorINS6_ISC_EEEEE5firstB7v160006Ev, symObjAddr: 0xD184, symBinAddr: 0x10000E86C, symSize: 0x24 }
  - { offsetInCU: 0x329A7, offset: 0x329A7, size: 0x8, addend: 0x0, symName: __ZNSt3__122__compressed_pair_elemIPNS_11__tree_nodeINS_12__value_typeINS_12basic_stringIcNS_11char_traitsIcEENS_9allocatorIcEEEE9JSONValueEEPvEELi0ELb0EE5__getB7v160006Ev, symObjAddr: 0xD1A8, symBinAddr: 0x10000E890, symSize: 0x14 }
  - { offsetInCU: 0x329CD, offset: 0x329CD, size: 0x8, addend: 0x0, symName: __ZNSt3__110unique_ptrINS_11__tree_nodeINS_12__value_typeINS_12basic_stringIcNS_11char_traitsIcEENS_9allocatorIcEEEE9JSONValueEEPvEENS_22__tree_node_destructorINS6_ISC_EEEEED2B7v160006Ev, symObjAddr: 0xD1BC, symBinAddr: 0x10000E8A4, symSize: 0x30 }
  - { offsetInCU: 0x329F7, offset: 0x329F7, size: 0x8, addend: 0x0, symName: __ZNSt3__110unique_ptrINS_11__tree_nodeINS_12__value_typeINS_12basic_stringIcNS_11char_traitsIcEENS_9allocatorIcEEEE9JSONValueEEPvEENS_22__tree_node_destructorINS6_ISC_EEEEE5resetB7v160006EPSC_, symObjAddr: 0xD1EC, symBinAddr: 0x10000E8D4, symSize: 0x78 }
  - { offsetInCU: 0x32A3B, offset: 0x32A3B, size: 0x8, addend: 0x0, symName: __ZNSt3__122__tree_node_destructorINS_9allocatorINS_11__tree_nodeINS_12__value_typeINS_12basic_stringIcNS_11char_traitsIcEENS1_IcEEEE9JSONValueEEPvEEEEEclB7v160006EPSC_, symObjAddr: 0xD264, symBinAddr: 0x10000E94C, symSize: 0x98 }
  - { offsetInCU: 0x32A70, offset: 0x32A70, size: 0x8, addend: 0x0, symName: __ZNSt3__116allocator_traitsINS_9allocatorINS_11__tree_nodeINS_12__value_typeINS_12basic_stringIcNS_11char_traitsIcEENS1_IcEEEE9JSONValueEEPvEEEEE7destroyB7v160006INS_4pairIKS8_S9_EEvvEEvRSD_PT_, symObjAddr: 0xD2FC, symBinAddr: 0x10000E9E4, symSize: 0x28 }
  - { offsetInCU: 0x32AAB, offset: 0x32AAB, size: 0x8, addend: 0x0, symName: __ZNSt3__116allocator_traitsINS_9allocatorINS_11__tree_nodeINS_12__value_typeINS_12basic_stringIcNS_11char_traitsIcEENS1_IcEEEE9JSONValueEEPvEEEEE10deallocateB7v160006ERSD_PSC_m, symObjAddr: 0xD324, symBinAddr: 0x10000EA0C, symSize: 0x34 }
  - { offsetInCU: 0x32AED, offset: 0x32AED, size: 0x8, addend: 0x0, symName: __ZNSt3__14pairIKNS_12basic_stringIcNS_11char_traitsIcEENS_9allocatorIcEEEE9JSONValueED1Ev, symObjAddr: 0xD358, symBinAddr: 0x10000EA40, symSize: 0x2C }
  - { offsetInCU: 0x32B19, offset: 0x32B19, size: 0x8, addend: 0x0, symName: __ZNSt3__14pairIKNS_12basic_stringIcNS_11char_traitsIcEENS_9allocatorIcEEEE9JSONValueED2Ev, symObjAddr: 0xD384, symBinAddr: 0x10000EA6C, symSize: 0x38 }
  - { offsetInCU: 0x32B45, offset: 0x32B45, size: 0x8, addend: 0x0, symName: __ZNSt3__19allocatorINS_11__tree_nodeINS_12__value_typeINS_12basic_stringIcNS_11char_traitsIcEENS0_IcEEEE9JSONValueEEPvEEE10deallocateB7v160006EPSB_m, symObjAddr: 0xD3BC, symBinAddr: 0x10000EAA4, symSize: 0x44 }
  - { offsetInCU: 0x32B87, offset: 0x32B87, size: 0x8, addend: 0x0, symName: __ZNSt3__115__tree_iteratorINS_12__value_typeINS_12basic_stringIcNS_11char_traitsIcEENS_9allocatorIcEEEE9JSONValueEEPNS_11__tree_nodeIS9_PvEElEC2B7v160006ESD_, symObjAddr: 0xD400, symBinAddr: 0x10000EAE8, symSize: 0x20 }
  - { offsetInCU: 0x32BC0, offset: 0x32BC0, size: 0x8, addend: 0x0, symName: __ZNSt3__14pairINS_15__tree_iteratorINS_12__value_typeINS_12basic_stringIcNS_11char_traitsIcEENS_9allocatorIcEEEE9JSONValueEEPNS_11__tree_nodeISA_PvEElEEbEC2B7v160006ISF_RbLSC_0EEEOT_OT0_, symObjAddr: 0xD420, symBinAddr: 0x10000EB08, symSize: 0x38 }
  - { offsetInCU: 0x32C1E, offset: 0x32C1E, size: 0x8, addend: 0x0, symName: __ZNSt3__15tupleIJRKNS_12basic_stringIcNS_11char_traitsIcEENS_9allocatorIcEEEEEEC1B7v160006INS_4_AndELi0EEES8_, symObjAddr: 0xD458, symBinAddr: 0x10000EB40, symSize: 0x34 }
  - { offsetInCU: 0x32C66, offset: 0x32C66, size: 0x8, addend: 0x0, symName: __ZNSt3__15tupleIJRKNS_12basic_stringIcNS_11char_traitsIcEENS_9allocatorIcEEEEEEC2B7v160006INS_4_AndELi0EEES8_, symObjAddr: 0xD48C, symBinAddr: 0x10000EB74, symSize: 0x34 }
  - { offsetInCU: 0x32CAE, offset: 0x32CAE, size: 0x8, addend: 0x0, symName: __ZNSt3__112__tuple_implINS_15__tuple_indicesIJLm0EEEEJRKNS_12basic_stringIcNS_11char_traitsIcEENS_9allocatorIcEEEEEEC1B7v160006IJLm0EEJSA_EJEJEJSA_EEENS1_IJXspT_EEEENS_13__tuple_typesIJDpT0_EEENS1_IJXspT1_EEEENSE_IJDpT2_EEEDpOT3_, symObjAddr: 0xD4C0, symBinAddr: 0x10000EBA8, symSize: 0x34 }
  - { offsetInCU: 0x32D43, offset: 0x32D43, size: 0x8, addend: 0x0, symName: __ZNSt3__112__tuple_implINS_15__tuple_indicesIJLm0EEEEJRKNS_12basic_stringIcNS_11char_traitsIcEENS_9allocatorIcEEEEEEC2B7v160006IJLm0EEJSA_EJEJEJSA_EEENS1_IJXspT_EEEENS_13__tuple_typesIJDpT0_EEENS1_IJXspT1_EEEENSE_IJDpT2_EEEDpOT3_, symObjAddr: 0xD4F4, symBinAddr: 0x10000EBDC, symSize: 0x34 }
  - { offsetInCU: 0x32DD8, offset: 0x32DD8, size: 0x8, addend: 0x0, symName: __ZNSt3__112__tuple_leafILm0ERKNS_12basic_stringIcNS_11char_traitsIcEENS_9allocatorIcEEEELb0EEC2B7v160006IS8_vEEOT_, symObjAddr: 0xD528, symBinAddr: 0x10000EC10, symSize: 0x20 }
  - { offsetInCU: 0x32E1B, offset: 0x32E1B, size: 0x8, addend: 0x0, symName: __ZNSt3__114pointer_traitsIPNS_12__value_typeINS_12basic_stringIcNS_11char_traitsIcEENS_9allocatorIcEEEE9JSONValueEEE10pointer_toB7v160006ERS9_, symObjAddr: 0xD548, symBinAddr: 0x10000EC30, symSize: 0x14 }
  - { offsetInCU: 0x32E3E, offset: 0x32E3E, size: 0x8, addend: 0x0, symName: __ZNKSt3__115__tree_iteratorINS_12__value_typeINS_12basic_stringIcNS_11char_traitsIcEENS_9allocatorIcEEEE9JSONValueEEPNS_11__tree_nodeIS9_PvEElE8__get_npB7v160006Ev, symObjAddr: 0xD55C, symBinAddr: 0x10000EC44, symSize: 0x18 }
  - { offsetInCU: 0x32E64, offset: 0x32E64, size: 0x8, addend: 0x0, symName: __ZNSt3__16vectorI9JSONValueNS_9allocatorIS1_EEEaSB7v160006ERKS4_, symObjAddr: 0xD5AC, symBinAddr: 0x10000EC94, symSize: 0x68 }
  - { offsetInCU: 0x32E9B, offset: 0x32E9B, size: 0x8, addend: 0x0, symName: __ZNSt3__13mapINS_12basic_stringIcNS_11char_traitsIcEENS_9allocatorIcEEEE9JSONValueNS_4lessIS6_EENS4_INS_4pairIKS6_S7_EEEEEaSB7v160006ERKSE_, symObjAddr: 0xD614, symBinAddr: 0x10000ECFC, symSize: 0x34 }
  - { offsetInCU: 0x32ED0, offset: 0x32ED0, size: 0x8, addend: 0x0, symName: __ZNSt3__16vectorI9JSONValueNS_9allocatorIS1_EEE19__copy_assign_allocB7v160006ERKS4_, symObjAddr: 0xD648, symBinAddr: 0x10000ED30, symSize: 0x2C }
  - { offsetInCU: 0x32F05, offset: 0x32F05, size: 0x8, addend: 0x0, symName: __ZNSt3__16vectorI9JSONValueNS_9allocatorIS1_EEE6assignIPS1_Li0EEEvT_S7_, symObjAddr: 0xD674, symBinAddr: 0x10000ED5C, symSize: 0x17C }
  - { offsetInCU: 0x32FA4, offset: 0x32FA4, size: 0x8, addend: 0x0, symName: __ZNSt3__16vectorI9JSONValueNS_9allocatorIS1_EEE19__copy_assign_allocB7v160006ERKS4_NS_17integral_constantIbLb0EEE, symObjAddr: 0xD7F0, symBinAddr: 0x10000EED8, symSize: 0x14 }
  - { offsetInCU: 0x32FE2, offset: 0x32FE2, size: 0x8, addend: 0x0, symName: __ZNKSt3__16vectorI9JSONValueNS_9allocatorIS1_EEE8capacityB7v160006Ev, symObjAddr: 0xD830, symBinAddr: 0x10000EF18, symSize: 0x40 }
  - { offsetInCU: 0x33008, offset: 0x33008, size: 0x8, addend: 0x0, symName: __ZNKSt3__16vectorI9JSONValueNS_9allocatorIS1_EEE4sizeB7v160006Ev, symObjAddr: 0xD870, symBinAddr: 0x10000EF58, symSize: 0x28 }
  - { offsetInCU: 0x3302E, offset: 0x3302E, size: 0x8, addend: 0x0, symName: __ZNSt3__16vectorI9JSONValueNS_9allocatorIS1_EEE18__construct_at_endIPS1_Li0EEEvT_S7_m, symObjAddr: 0xD928, symBinAddr: 0x10000F010, symSize: 0x8C }
  - { offsetInCU: 0x330A1, offset: 0x330A1, size: 0x8, addend: 0x0, symName: __ZNSt3__16vectorI9JSONValueNS_9allocatorIS1_EEE17__destruct_at_endB7v160006EPS1_, symObjAddr: 0xD9B4, symBinAddr: 0x10000F09C, symSize: 0x60 }
  - { offsetInCU: 0x330E5, offset: 0x330E5, size: 0x8, addend: 0x0, symName: __ZNSt3__16vectorI9JSONValueNS_9allocatorIS1_EEE13__vdeallocateEv, symObjAddr: 0xDA14, symBinAddr: 0x10000F0FC, symSize: 0x8C }
  - { offsetInCU: 0x3310D, offset: 0x3310D, size: 0x8, addend: 0x0, symName: __ZNSt3__16vectorI9JSONValueNS_9allocatorIS1_EEE11__vallocateB7v160006Em, symObjAddr: 0xDAA0, symBinAddr: 0x10000F188, symSize: 0xB4 }
  - { offsetInCU: 0x33151, offset: 0x33151, size: 0x8, addend: 0x0, symName: __ZNKSt3__16vectorI9JSONValueNS_9allocatorIS1_EEE11__recommendB7v160006Em, symObjAddr: 0xDB54, symBinAddr: 0x10000F23C, symSize: 0xB4 }
  - { offsetInCU: 0x331A6, offset: 0x331A6, size: 0x8, addend: 0x0, symName: __ZNKSt3__16vectorI9JSONValueNS_9allocatorIS1_EEE9__end_capB7v160006Ev, symObjAddr: 0xDC40, symBinAddr: 0x10000F328, symSize: 0x28 }
  - { offsetInCU: 0x331CC, offset: 0x331CC, size: 0x8, addend: 0x0, symName: __ZNKSt3__117__compressed_pairIP9JSONValueNS_9allocatorIS1_EEE5firstB7v160006Ev, symObjAddr: 0xDC68, symBinAddr: 0x10000F350, symSize: 0x24 }
  - { offsetInCU: 0x331F2, offset: 0x331F2, size: 0x8, addend: 0x0, symName: __ZNKSt3__122__compressed_pair_elemIP9JSONValueLi0ELb0EE5__getB7v160006Ev, symObjAddr: 0xDC8C, symBinAddr: 0x10000F374, symSize: 0x14 }
  - { offsetInCU: 0x3323E, offset: 0x3323E, size: 0x8, addend: 0x0, symName: __ZNKSt3__111__copy_loopINS_17_ClassicAlgPolicyEEclB7v160006IP9JSONValueS5_S5_EENS_4pairIT_T1_EES7_T0_S8_, symObjAddr: 0xDE80, symBinAddr: 0x10000F568, symSize: 0x88 }
  - { offsetInCU: 0x332A9, offset: 0x332A9, size: 0x8, addend: 0x0, symName: __ZNSt3__118__unwrap_iter_implIP9JSONValueLb1EE8__unwrapB7v160006ES2_, symObjAddr: 0xDFCC, symBinAddr: 0x10000F6B4, symSize: 0x24 }
  - { offsetInCU: 0x332D2, offset: 0x332D2, size: 0x8, addend: 0x0, symName: __ZNSt3__14pairIP9JSONValueS2_EC1B7v160006IS2_S2_LPv0EEEOT_OT0_, symObjAddr: 0xE004, symBinAddr: 0x10000F6EC, symSize: 0x3C }
  - { offsetInCU: 0x33330, offset: 0x33330, size: 0x8, addend: 0x0, symName: __ZNSt3__14pairIP9JSONValueS2_EC2B7v160006IS2_S2_LPv0EEEOT_OT0_, symObjAddr: 0xE040, symBinAddr: 0x10000F728, symSize: 0x34 }
  - { offsetInCU: 0x3338E, offset: 0x3338E, size: 0x8, addend: 0x0, symName: __ZNSt3__118__unwrap_iter_implIP9JSONValueLb1EE8__rewrapB7v160006ES2_S2_, symObjAddr: 0xE074, symBinAddr: 0x10000F75C, symSize: 0x58 }
  - { offsetInCU: 0x333DA, offset: 0x333DA, size: 0x8, addend: 0x0, symName: __ZNSt3__16vectorI9JSONValueNS_9allocatorIS1_EEE21_ConstructTransactionC1B7v160006ERS4_m, symObjAddr: 0xE0CC, symBinAddr: 0x10000F7B4, symSize: 0x3C }
  - { offsetInCU: 0x33422, offset: 0x33422, size: 0x8, addend: 0x0, symName: __ZNSt3__16vectorI9JSONValueNS_9allocatorIS1_EEE7__allocB7v160006Ev, symObjAddr: 0xE1FC, symBinAddr: 0x10000F8E4, symSize: 0x28 }
  - { offsetInCU: 0x33448, offset: 0x33448, size: 0x8, addend: 0x0, symName: __ZNSt3__16vectorI9JSONValueNS_9allocatorIS1_EEE21_ConstructTransactionD1B7v160006Ev, symObjAddr: 0xE224, symBinAddr: 0x10000F90C, symSize: 0x2C }
  - { offsetInCU: 0x33472, offset: 0x33472, size: 0x8, addend: 0x0, symName: __ZNSt3__16vectorI9JSONValueNS_9allocatorIS1_EEE21_ConstructTransactionC2B7v160006ERS4_m, symObjAddr: 0xE250, symBinAddr: 0x10000F938, symSize: 0x4C }
  - { offsetInCU: 0x334BA, offset: 0x334BA, size: 0x8, addend: 0x0, symName: __ZNSt3__129_AllocatorDestroyRangeReverseINS_9allocatorI9JSONValueEEPS2_EC1B7v160006ERS3_RS4_S7_, symObjAddr: 0xE2E8, symBinAddr: 0x10000F9D0, symSize: 0x44 }
  - { offsetInCU: 0x33511, offset: 0x33511, size: 0x8, addend: 0x0, symName: __ZNSt3__116allocator_traitsINS_9allocatorI9JSONValueEEE9constructB7v160006IS2_JRS2_EvEEvRS3_PT_DpOT0_, symObjAddr: 0xE32C, symBinAddr: 0x10000FA14, symSize: 0x34 }
  - { offsetInCU: 0x33568, offset: 0x33568, size: 0x8, addend: 0x0, symName: __ZNSt3__128__exception_guard_exceptionsINS_29_AllocatorDestroyRangeReverseINS_9allocatorI9JSONValueEEPS3_EEE10__completeB7v160006Ev, symObjAddr: 0xE360, symBinAddr: 0x10000FA48, symSize: 0x1C }
  - { offsetInCU: 0x3358E, offset: 0x3358E, size: 0x8, addend: 0x0, symName: __ZNSt3__128__exception_guard_exceptionsINS_29_AllocatorDestroyRangeReverseINS_9allocatorI9JSONValueEEPS3_EEED1B7v160006Ev, symObjAddr: 0xE37C, symBinAddr: 0x10000FA64, symSize: 0x2C }
  - { offsetInCU: 0x335B8, offset: 0x335B8, size: 0x8, addend: 0x0, symName: __ZNSt3__128__exception_guard_exceptionsINS_29_AllocatorDestroyRangeReverseINS_9allocatorI9JSONValueEEPS3_EEEC1B7v160006ES6_, symObjAddr: 0xE3A8, symBinAddr: 0x10000FA90, symSize: 0x34 }
  - { offsetInCU: 0x335F1, offset: 0x335F1, size: 0x8, addend: 0x0, symName: __ZNSt3__128__exception_guard_exceptionsINS_29_AllocatorDestroyRangeReverseINS_9allocatorI9JSONValueEEPS3_EEEC2B7v160006ES6_, symObjAddr: 0xE3DC, symBinAddr: 0x10000FAC4, symSize: 0x30 }
  - { offsetInCU: 0x3362A, offset: 0x3362A, size: 0x8, addend: 0x0, symName: __ZNSt3__129_AllocatorDestroyRangeReverseINS_9allocatorI9JSONValueEEPS2_EC2B7v160006ERS3_RS4_S7_, symObjAddr: 0xE40C, symBinAddr: 0x10000FAF4, symSize: 0x38 }
  - { offsetInCU: 0x33681, offset: 0x33681, size: 0x8, addend: 0x0, symName: __ZNSt3__19allocatorI9JSONValueE9constructB7v160006IS1_JRS1_EEEvPT_DpOT0_, symObjAddr: 0xE444, symBinAddr: 0x10000FB2C, symSize: 0x30 }
  - { offsetInCU: 0x336D7, offset: 0x336D7, size: 0x8, addend: 0x0, symName: __ZN9JSONValueC1ERKS_, symObjAddr: 0xE474, symBinAddr: 0x10000FB5C, symSize: 0x34 }
  - { offsetInCU: 0x3370C, offset: 0x3370C, size: 0x8, addend: 0x0, symName: __ZN9JSONValueC2ERKS_, symObjAddr: 0xE4A8, symBinAddr: 0x10000FB90, symSize: 0xD4 }
  - { offsetInCU: 0x33741, offset: 0x33741, size: 0x8, addend: 0x0, symName: __ZNSt3__16vectorI9JSONValueNS_9allocatorIS1_EEEC1ERKS4_, symObjAddr: 0xE57C, symBinAddr: 0x10000FC64, symSize: 0x34 }
  - { offsetInCU: 0x3377C, offset: 0x3377C, size: 0x8, addend: 0x0, symName: __ZNSt3__13mapINS_12basic_stringIcNS_11char_traitsIcEENS_9allocatorIcEEEE9JSONValueNS_4lessIS6_EENS4_INS_4pairIKS6_S7_EEEEEC1B7v160006ERKSE_, symObjAddr: 0xE5B0, symBinAddr: 0x10000FC98, symSize: 0x34 }
  - { offsetInCU: 0x337B5, offset: 0x337B5, size: 0x8, addend: 0x0, symName: __ZNSt3__16vectorI9JSONValueNS_9allocatorIS1_EEED1B7v160006Ev, symObjAddr: 0xE5E4, symBinAddr: 0x10000FCCC, symSize: 0x2C }
  - { offsetInCU: 0x337DF, offset: 0x337DF, size: 0x8, addend: 0x0, symName: __ZNSt3__16vectorI9JSONValueNS_9allocatorIS1_EEEC2ERKS4_, symObjAddr: 0xE610, symBinAddr: 0x10000FCF8, symSize: 0x110 }
  - { offsetInCU: 0x33849, offset: 0x33849, size: 0x8, addend: 0x0, symName: __ZNSt3__116allocator_traitsINS_9allocatorI9JSONValueEEE37select_on_container_copy_constructionB7v160006IS3_vvEES3_RKS3_, symObjAddr: 0xE720, symBinAddr: 0x10000FE08, symSize: 0x10 }
  - { offsetInCU: 0x33878, offset: 0x33878, size: 0x8, addend: 0x0, symName: __ZNKSt3__16vectorI9JSONValueNS_9allocatorIS1_EEE7__allocB7v160006Ev, symObjAddr: 0xE730, symBinAddr: 0x10000FE18, symSize: 0x28 }
  - { offsetInCU: 0x338A4, offset: 0x338A4, size: 0x8, addend: 0x0, symName: __ZNSt3__117__compressed_pairIP9JSONValueNS_9allocatorIS1_EEEC1B7v160006IDnS4_EEOT_OT0_, symObjAddr: 0xE758, symBinAddr: 0x10000FE40, symSize: 0x3C }
  - { offsetInCU: 0x338FC, offset: 0x338FC, size: 0x8, addend: 0x0, symName: __ZNSt3__16vectorI9JSONValueNS_9allocatorIS1_EEE16__destroy_vectorC1ERS4_, symObjAddr: 0xE7D4, symBinAddr: 0x10000FEBC, symSize: 0x34 }
  - { offsetInCU: 0x33935, offset: 0x33935, size: 0x8, addend: 0x0, symName: __ZNSt3__128__exception_guard_exceptionsINS_6vectorI9JSONValueNS_9allocatorIS2_EEE16__destroy_vectorEE10__completeB7v160006Ev, symObjAddr: 0xE808, symBinAddr: 0x10000FEF0, symSize: 0x1C }
  - { offsetInCU: 0x3395B, offset: 0x3395B, size: 0x8, addend: 0x0, symName: __ZNSt3__128__exception_guard_exceptionsINS_6vectorI9JSONValueNS_9allocatorIS2_EEE16__destroy_vectorEED1B7v160006Ev, symObjAddr: 0xE824, symBinAddr: 0x10000FF0C, symSize: 0x2C }
  - { offsetInCU: 0x33985, offset: 0x33985, size: 0x8, addend: 0x0, symName: __ZNKSt3__117__compressed_pairIP9JSONValueNS_9allocatorIS1_EEE6secondB7v160006Ev, symObjAddr: 0xE850, symBinAddr: 0x10000FF38, symSize: 0x24 }
  - { offsetInCU: 0x339AB, offset: 0x339AB, size: 0x8, addend: 0x0, symName: __ZNKSt3__122__compressed_pair_elemINS_9allocatorI9JSONValueEELi1ELb1EE5__getB7v160006Ev, symObjAddr: 0xE874, symBinAddr: 0x10000FF5C, symSize: 0x14 }
  - { offsetInCU: 0x339D1, offset: 0x339D1, size: 0x8, addend: 0x0, symName: __ZNSt3__117__compressed_pairIP9JSONValueNS_9allocatorIS1_EEEC2B7v160006IDnS4_EEOT_OT0_, symObjAddr: 0xE888, symBinAddr: 0x10000FF70, symSize: 0x44 }
  - { offsetInCU: 0x33A29, offset: 0x33A29, size: 0x8, addend: 0x0, symName: __ZNSt3__122__compressed_pair_elemINS_9allocatorI9JSONValueEELi1ELb1EEC2B7v160006IS3_vEEOT_, symObjAddr: 0xE8CC, symBinAddr: 0x10000FFB4, symSize: 0x18 }
  - { offsetInCU: 0x33A6B, offset: 0x33A6B, size: 0x8, addend: 0x0, symName: __ZNSt3__128__exception_guard_exceptionsINS_6vectorI9JSONValueNS_9allocatorIS2_EEE16__destroy_vectorEEC1B7v160006ES6_, symObjAddr: 0xE8E4, symBinAddr: 0x10000FFCC, symSize: 0x34 }
  - { offsetInCU: 0x33AA3, offset: 0x33AA3, size: 0x8, addend: 0x0, symName: __ZNSt3__128__exception_guard_exceptionsINS_6vectorI9JSONValueNS_9allocatorIS2_EEE16__destroy_vectorEEC2B7v160006ES6_, symObjAddr: 0xE918, symBinAddr: 0x100010000, symSize: 0x24 }
  - { offsetInCU: 0x33ADB, offset: 0x33ADB, size: 0x8, addend: 0x0, symName: __ZNSt3__16vectorI9JSONValueNS_9allocatorIS1_EEE16__destroy_vectorC2ERS4_, symObjAddr: 0xE93C, symBinAddr: 0x100010024, symSize: 0x20 }
  - { offsetInCU: 0x33B14, offset: 0x33B14, size: 0x8, addend: 0x0, symName: __ZNSt3__128__exception_guard_exceptionsINS_6vectorI9JSONValueNS_9allocatorIS2_EEE16__destroy_vectorEED2B7v160006Ev, symObjAddr: 0xE95C, symBinAddr: 0x100010044, symSize: 0x50 }
  - { offsetInCU: 0x33B3E, offset: 0x33B3E, size: 0x8, addend: 0x0, symName: __ZNSt3__16vectorI9JSONValueNS_9allocatorIS1_EEE16__destroy_vectorclB7v160006Ev, symObjAddr: 0xE9AC, symBinAddr: 0x100010094, symSize: 0x9C }
  - { offsetInCU: 0x33B64, offset: 0x33B64, size: 0x8, addend: 0x0, symName: __ZNKSt3__16vectorI9JSONValueNS_9allocatorIS1_EEE17__annotate_deleteB7v160006Ev, symObjAddr: 0xEA48, symBinAddr: 0x100010130, symSize: 0xD4 }
  - { offsetInCU: 0x33B8A, offset: 0x33B8A, size: 0x8, addend: 0x0, symName: __ZNSt3__16vectorI9JSONValueNS_9allocatorIS1_EEE7__clearB7v160006Ev, symObjAddr: 0xEB2C, symBinAddr: 0x100010214, symSize: 0x28 }
  - { offsetInCU: 0x33BB0, offset: 0x33BB0, size: 0x8, addend: 0x0, symName: __ZNSt3__116allocator_traitsINS_9allocatorI9JSONValueEEE10deallocateB7v160006ERS3_PS2_m, symObjAddr: 0xEB54, symBinAddr: 0x10001023C, symSize: 0x34 }
  - { offsetInCU: 0x33BF2, offset: 0x33BF2, size: 0x8, addend: 0x0, symName: __ZNKSt3__16vectorI9JSONValueNS_9allocatorIS1_EEE31__annotate_contiguous_containerB7v160006EPKvS6_S6_S6_, symObjAddr: 0xEB88, symBinAddr: 0x100010270, symSize: 0x20 }
  - { offsetInCU: 0x33C48, offset: 0x33C48, size: 0x8, addend: 0x0, symName: __ZNKSt3__16vectorI9JSONValueNS_9allocatorIS1_EEE4dataB7v160006Ev, symObjAddr: 0xEBA8, symBinAddr: 0x100010290, symSize: 0x28 }
  - { offsetInCU: 0x33C6E, offset: 0x33C6E, size: 0x8, addend: 0x0, symName: __ZNSt3__16vectorI9JSONValueNS_9allocatorIS1_EEE22__base_destruct_at_endB7v160006EPS1_, symObjAddr: 0xEBD0, symBinAddr: 0x1000102B8, symSize: 0x8C }
  - { offsetInCU: 0x33CB2, offset: 0x33CB2, size: 0x8, addend: 0x0, symName: __ZNSt3__116allocator_traitsINS_9allocatorI9JSONValueEEE7destroyB7v160006IS2_vEEvRS3_PT_, symObjAddr: 0xEC5C, symBinAddr: 0x100010344, symSize: 0x2C }
  - { offsetInCU: 0x33CEF, offset: 0x33CEF, size: 0x8, addend: 0x0, symName: __ZNSt3__19allocatorI9JSONValueE7destroyB7v160006EPS1_, symObjAddr: 0xEC88, symBinAddr: 0x100010370, symSize: 0x28 }
  - { offsetInCU: 0x33D23, offset: 0x33D23, size: 0x8, addend: 0x0, symName: __ZNSt3__19allocatorI9JSONValueE10deallocateB7v160006EPS1_m, symObjAddr: 0xECB0, symBinAddr: 0x100010398, symSize: 0x44 }
  - { offsetInCU: 0x33D65, offset: 0x33D65, size: 0x8, addend: 0x0, symName: __ZNSt3__13mapINS_12basic_stringIcNS_11char_traitsIcEENS_9allocatorIcEEEE9JSONValueNS_4lessIS6_EENS4_INS_4pairIKS6_S7_EEEEEC2B7v160006ERKSE_, symObjAddr: 0xECF4, symBinAddr: 0x1000103DC, symSize: 0x88 }
  - { offsetInCU: 0x33D9E, offset: 0x33D9E, size: 0x8, addend: 0x0, symName: __ZNSt3__16__treeINS_12__value_typeINS_12basic_stringIcNS_11char_traitsIcEENS_9allocatorIcEEEE9JSONValueEENS_19__map_value_compareIS7_S9_NS_4lessIS7_EELb1EEENS5_IS9_EEEC1ERKSF_, symObjAddr: 0xED7C, symBinAddr: 0x100010464, symSize: 0x34 }
  - { offsetInCU: 0x33DD9, offset: 0x33DD9, size: 0x8, addend: 0x0, symName: __ZNSt3__13mapINS_12basic_stringIcNS_11char_traitsIcEENS_9allocatorIcEEEE9JSONValueNS_4lessIS6_EENS4_INS_4pairIKS6_S7_EEEEE6insertB7v160006INS_20__map_const_iteratorINS_21__tree_const_iteratorINS_12__value_typeIS6_S7_EEPNS_11__tree_nodeISJ_PvEElEEEEEEvT_SQ_, symObjAddr: 0xEDB0, symBinAddr: 0x100010498, symSize: 0x8C }
  - { offsetInCU: 0x33E43, offset: 0x33E43, size: 0x8, addend: 0x0, symName: __ZNKSt3__13mapINS_12basic_stringIcNS_11char_traitsIcEENS_9allocatorIcEEEE9JSONValueNS_4lessIS6_EENS4_INS_4pairIKS6_S7_EEEEE5beginB7v160006Ev, symObjAddr: 0xEE3C, symBinAddr: 0x100010524, symSize: 0x38 }
  - { offsetInCU: 0x33E69, offset: 0x33E69, size: 0x8, addend: 0x0, symName: __ZNKSt3__13mapINS_12basic_stringIcNS_11char_traitsIcEENS_9allocatorIcEEEE9JSONValueNS_4lessIS6_EENS4_INS_4pairIKS6_S7_EEEEE3endB7v160006Ev, symObjAddr: 0xEE74, symBinAddr: 0x10001055C, symSize: 0x38 }
  - { offsetInCU: 0x33E8F, offset: 0x33E8F, size: 0x8, addend: 0x0, symName: __ZNSt3__16__treeINS_12__value_typeINS_12basic_stringIcNS_11char_traitsIcEENS_9allocatorIcEEEE9JSONValueEENS_19__map_value_compareIS7_S9_NS_4lessIS7_EELb1EEENS5_IS9_EEED1Ev, symObjAddr: 0xEEAC, symBinAddr: 0x100010594, symSize: 0x2C }
  - { offsetInCU: 0x33EBB, offset: 0x33EBB, size: 0x8, addend: 0x0, symName: __ZNSt3__16__treeINS_12__value_typeINS_12basic_stringIcNS_11char_traitsIcEENS_9allocatorIcEEEE9JSONValueEENS_19__map_value_compareIS7_S9_NS_4lessIS7_EELb1EEENS5_IS9_EEEC2ERKSF_, symObjAddr: 0xEED8, symBinAddr: 0x1000105C0, symSize: 0x9C }
  - { offsetInCU: 0x33EF6, offset: 0x33EF6, size: 0x8, addend: 0x0, symName: __ZNSt3__116allocator_traitsINS_9allocatorINS_11__tree_nodeINS_12__value_typeINS_12basic_stringIcNS_11char_traitsIcEENS1_IcEEEE9JSONValueEEPvEEEEE37select_on_container_copy_constructionB7v160006ISD_vvEESD_RKSD_, symObjAddr: 0xEF74, symBinAddr: 0x10001065C, symSize: 0x10 }
  - { offsetInCU: 0x33F25, offset: 0x33F25, size: 0x8, addend: 0x0, symName: __ZNKSt3__16__treeINS_12__value_typeINS_12basic_stringIcNS_11char_traitsIcEENS_9allocatorIcEEEE9JSONValueEENS_19__map_value_compareIS7_S9_NS_4lessIS7_EELb1EEENS5_IS9_EEE12__node_allocB7v160006Ev, symObjAddr: 0xEF84, symBinAddr: 0x10001066C, symSize: 0x28 }
  - { offsetInCU: 0x33F51, offset: 0x33F51, size: 0x8, addend: 0x0, symName: __ZNSt3__117__compressed_pairINS_15__tree_end_nodeIPNS_16__tree_node_baseIPvEEEENS_9allocatorINS_11__tree_nodeINS_12__value_typeINS_12basic_stringIcNS_11char_traitsIcEENS7_IcEEEE9JSONValueEES3_EEEEEC1B7v160006INS_18__default_init_tagESI_EEOT_OT0_, symObjAddr: 0xEFAC, symBinAddr: 0x100010694, symSize: 0x3C }
  - { offsetInCU: 0x33FA9, offset: 0x33FA9, size: 0x8, addend: 0x0, symName: __ZNKSt3__16__treeINS_12__value_typeINS_12basic_stringIcNS_11char_traitsIcEENS_9allocatorIcEEEE9JSONValueEENS_19__map_value_compareIS7_S9_NS_4lessIS7_EELb1EEENS5_IS9_EEE10value_compB7v160006Ev, symObjAddr: 0xEFE8, symBinAddr: 0x1000106D0, symSize: 0x28 }
  - { offsetInCU: 0x33FCF, offset: 0x33FCF, size: 0x8, addend: 0x0, symName: __ZNKSt3__117__compressed_pairINS_15__tree_end_nodeIPNS_16__tree_node_baseIPvEEEENS_9allocatorINS_11__tree_nodeINS_12__value_typeINS_12basic_stringIcNS_11char_traitsIcEENS7_IcEEEE9JSONValueEES3_EEEEE6secondB7v160006Ev, symObjAddr: 0xF010, symBinAddr: 0x1000106F8, symSize: 0x24 }
  - { offsetInCU: 0x33FF5, offset: 0x33FF5, size: 0x8, addend: 0x0, symName: __ZNKSt3__122__compressed_pair_elemINS_9allocatorINS_11__tree_nodeINS_12__value_typeINS_12basic_stringIcNS_11char_traitsIcEENS1_IcEEEE9JSONValueEEPvEEEELi1ELb1EE5__getB7v160006Ev, symObjAddr: 0xF034, symBinAddr: 0x10001071C, symSize: 0x14 }
  - { offsetInCU: 0x3401B, offset: 0x3401B, size: 0x8, addend: 0x0, symName: __ZNSt3__117__compressed_pairINS_15__tree_end_nodeIPNS_16__tree_node_baseIPvEEEENS_9allocatorINS_11__tree_nodeINS_12__value_typeINS_12basic_stringIcNS_11char_traitsIcEENS7_IcEEEE9JSONValueEES3_EEEEEC2B7v160006INS_18__default_init_tagESI_EEOT_OT0_, symObjAddr: 0xF048, symBinAddr: 0x100010730, symSize: 0x40 }
  - { offsetInCU: 0x34073, offset: 0x34073, size: 0x8, addend: 0x0, symName: __ZNSt3__122__compressed_pair_elemINS_15__tree_end_nodeIPNS_16__tree_node_baseIPvEEEELi0ELb0EEC2B7v160006ENS_18__default_init_tagE, symObjAddr: 0xF088, symBinAddr: 0x100010770, symSize: 0x2C }
  - { offsetInCU: 0x340A8, offset: 0x340A8, size: 0x8, addend: 0x0, symName: __ZNSt3__122__compressed_pair_elemINS_9allocatorINS_11__tree_nodeINS_12__value_typeINS_12basic_stringIcNS_11char_traitsIcEENS1_IcEEEE9JSONValueEEPvEEEELi1ELb1EEC2B7v160006ISD_vEEOT_, symObjAddr: 0xF0B4, symBinAddr: 0x10001079C, symSize: 0x18 }
  - { offsetInCU: 0x340EA, offset: 0x340EA, size: 0x8, addend: 0x0, symName: __ZNKSt3__117__compressed_pairImNS_19__map_value_compareINS_12basic_stringIcNS_11char_traitsIcEENS_9allocatorIcEEEENS_12__value_typeIS7_9JSONValueEENS_4lessIS7_EELb1EEEE6secondB7v160006Ev, symObjAddr: 0xF0CC, symBinAddr: 0x1000107B4, symSize: 0x24 }
  - { offsetInCU: 0x34110, offset: 0x34110, size: 0x8, addend: 0x0, symName: __ZNKSt3__122__compressed_pair_elemINS_19__map_value_compareINS_12basic_stringIcNS_11char_traitsIcEENS_9allocatorIcEEEENS_12__value_typeIS7_9JSONValueEENS_4lessIS7_EELb1EEELi1ELb1EE5__getB7v160006Ev, symObjAddr: 0xF0F0, symBinAddr: 0x1000107D8, symSize: 0x14 }
  - { offsetInCU: 0x34136, offset: 0x34136, size: 0x8, addend: 0x0, symName: __ZNKSt3__13mapINS_12basic_stringIcNS_11char_traitsIcEENS_9allocatorIcEEEE9JSONValueNS_4lessIS6_EENS4_INS_4pairIKS6_S7_EEEEE4cendB7v160006Ev, symObjAddr: 0xF104, symBinAddr: 0x1000107EC, symSize: 0x2C }
  - { offsetInCU: 0x3415C, offset: 0x3415C, size: 0x8, addend: 0x0, symName: __ZNSt3__13mapINS_12basic_stringIcNS_11char_traitsIcEENS_9allocatorIcEEEE9JSONValueNS_4lessIS6_EENS4_INS_4pairIKS6_S7_EEEEE6insertB7v160006ENS_20__map_const_iteratorINS_21__tree_const_iteratorINS_12__value_typeIS6_S7_EEPNS_11__tree_nodeISI_PvEElEEEERKSC_, symObjAddr: 0xF160, symBinAddr: 0x100010848, symSize: 0x50 }
  - { offsetInCU: 0x341A0, offset: 0x341A0, size: 0x8, addend: 0x0, symName: __ZNSt3__120__map_const_iteratorINS_21__tree_const_iteratorINS_12__value_typeINS_12basic_stringIcNS_11char_traitsIcEENS_9allocatorIcEEEE9JSONValueEEPNS_11__tree_nodeISA_PvEElEEEC1B7v160006ESF_, symObjAddr: 0xF1B0, symBinAddr: 0x100010898, symSize: 0x34 }
  - { offsetInCU: 0x341D9, offset: 0x341D9, size: 0x8, addend: 0x0, symName: __ZNKSt3__120__map_const_iteratorINS_21__tree_const_iteratorINS_12__value_typeINS_12basic_stringIcNS_11char_traitsIcEENS_9allocatorIcEEEE9JSONValueEEPNS_11__tree_nodeISA_PvEElEEEdeB7v160006Ev, symObjAddr: 0xF1E4, symBinAddr: 0x1000108CC, symSize: 0x28 }
  - { offsetInCU: 0x341FF, offset: 0x341FF, size: 0x8, addend: 0x0, symName: __ZNSt3__120__map_const_iteratorINS_21__tree_const_iteratorINS_12__value_typeINS_12basic_stringIcNS_11char_traitsIcEENS_9allocatorIcEEEE9JSONValueEEPNS_11__tree_nodeISA_PvEElEEEppB7v160006Ev, symObjAddr: 0xF20C, symBinAddr: 0x1000108F4, symSize: 0x2C }
  - { offsetInCU: 0x34225, offset: 0x34225, size: 0x8, addend: 0x0, symName: __ZNSt3__16__treeINS_12__value_typeINS_12basic_stringIcNS_11char_traitsIcEENS_9allocatorIcEEEE9JSONValueEENS_19__map_value_compareIS7_S9_NS_4lessIS7_EELb1EEENS5_IS9_EEE15__insert_uniqueB7v160006ENS_21__tree_const_iteratorIS9_PNS_11__tree_nodeIS9_PvEElEERKNS_4pairIKS7_S8_EE, symObjAddr: 0xF29C, symBinAddr: 0x100010984, symSize: 0x64 }
  - { offsetInCU: 0x34269, offset: 0x34269, size: 0x8, addend: 0x0, symName: __ZNSt3__114__map_iteratorINS_15__tree_iteratorINS_12__value_typeINS_12basic_stringIcNS_11char_traitsIcEENS_9allocatorIcEEEE9JSONValueEEPNS_11__tree_nodeISA_PvEElEEEC1B7v160006ESF_, symObjAddr: 0xF300, symBinAddr: 0x1000109E8, symSize: 0x34 }
  - { offsetInCU: 0x342A2, offset: 0x342A2, size: 0x8, addend: 0x0, symName: __ZNSt3__16__treeINS_12__value_typeINS_12basic_stringIcNS_11char_traitsIcEENS_9allocatorIcEEEE9JSONValueEENS_19__map_value_compareIS7_S9_NS_4lessIS7_EELb1EEENS5_IS9_EEE30__emplace_hint_unique_key_argsIS7_JRKNS_4pairIKS7_S8_EEEEENSH_INS_15__tree_iteratorIS9_PNS_11__tree_nodeIS9_PvEElEEbEENS_21__tree_const_iteratorIS9_SQ_lEERKT_DpOT0_, symObjAddr: 0xF334, symBinAddr: 0x100010A1C, symSize: 0x104 }
  - { offsetInCU: 0x3436E, offset: 0x3436E, size: 0x8, addend: 0x0, symName: __ZNSt3__122__tree_key_value_typesINS_12__value_typeINS_12basic_stringIcNS_11char_traitsIcEENS_9allocatorIcEEEE9JSONValueEEE9__get_keyB7v160006IKNS_4pairIKS7_S8_EEEENS_9enable_ifIXsr17__is_same_uncvrefIT_SE_EE5valueERSD_E4typeERSH_, symObjAddr: 0xF438, symBinAddr: 0x100010B20, symSize: 0x14 }
  - { offsetInCU: 0x3439B, offset: 0x3439B, size: 0x8, addend: 0x0, symName: __ZNSt3__16__treeINS_12__value_typeINS_12basic_stringIcNS_11char_traitsIcEENS_9allocatorIcEEEE9JSONValueEENS_19__map_value_compareIS7_S9_NS_4lessIS7_EELb1EEENS5_IS9_EEE12__find_equalIS7_EERPNS_16__tree_node_baseIPvEENS_21__tree_const_iteratorIS9_PNS_11__tree_nodeIS9_SI_EElEERPNS_15__tree_end_nodeISK_EESL_RKT_, symObjAddr: 0xF44C, symBinAddr: 0x100010B34, symSize: 0x304 }
  - { offsetInCU: 0x34444, offset: 0x34444, size: 0x8, addend: 0x0, symName: __ZNSt3__16__treeINS_12__value_typeINS_12basic_stringIcNS_11char_traitsIcEENS_9allocatorIcEEEE9JSONValueEENS_19__map_value_compareIS7_S9_NS_4lessIS7_EELb1EEENS5_IS9_EEE16__construct_nodeIJRKNS_4pairIKS7_S8_EEEEENS_10unique_ptrINS_11__tree_nodeIS9_PvEENS_22__tree_node_destructorINS5_ISP_EEEEEEDpOT_, symObjAddr: 0xF750, symBinAddr: 0x100010E38, symSize: 0x110 }
  - { offsetInCU: 0x344A5, offset: 0x344A5, size: 0x8, addend: 0x0, symName: __ZNSt3__16__treeINS_12__value_typeINS_12basic_stringIcNS_11char_traitsIcEENS_9allocatorIcEEEE9JSONValueEENS_19__map_value_compareIS7_S9_NS_4lessIS7_EELb1EEENS5_IS9_EEE3endB7v160006Ev, symObjAddr: 0xF860, symBinAddr: 0x100010F48, symSize: 0x34 }
  - { offsetInCU: 0x344CB, offset: 0x344CB, size: 0x8, addend: 0x0, symName: __ZNSt3__121__tree_const_iteratorINS_12__value_typeINS_12basic_stringIcNS_11char_traitsIcEENS_9allocatorIcEEEE9JSONValueEEPNS_11__tree_nodeIS9_PvEElEC1B7v160006ENS_15__tree_iteratorIS9_SD_lEE, symObjAddr: 0xF894, symBinAddr: 0x100010F7C, symSize: 0x34 }
  - { offsetInCU: 0x34504, offset: 0x34504, size: 0x8, addend: 0x0, symName: __ZNKSt3__121__tree_const_iteratorINS_12__value_typeINS_12basic_stringIcNS_11char_traitsIcEENS_9allocatorIcEEEE9JSONValueEEPNS_11__tree_nodeIS9_PvEElEdeB7v160006Ev, symObjAddr: 0xF8C8, symBinAddr: 0x100010FB0, symSize: 0x28 }
  - { offsetInCU: 0x3452A, offset: 0x3452A, size: 0x8, addend: 0x0, symName: __ZNSt3__16__treeINS_12__value_typeINS_12basic_stringIcNS_11char_traitsIcEENS_9allocatorIcEEEE9JSONValueEENS_19__map_value_compareIS7_S9_NS_4lessIS7_EELb1EEENS5_IS9_EEE5beginB7v160006Ev, symObjAddr: 0xF8F0, symBinAddr: 0x100010FD8, symSize: 0x34 }
  - { offsetInCU: 0x34550, offset: 0x34550, size: 0x8, addend: 0x0, symName: __ZNSt3__121__tree_const_iteratorINS_12__value_typeINS_12basic_stringIcNS_11char_traitsIcEENS_9allocatorIcEEEE9JSONValueEEPNS_11__tree_nodeIS9_PvEElEmmB7v160006Ev, symObjAddr: 0xF924, symBinAddr: 0x10001100C, symSize: 0x38 }
  - { offsetInCU: 0x34576, offset: 0x34576, size: 0x8, addend: 0x0, symName: __ZNKSt3__121__tree_const_iteratorINS_12__value_typeINS_12basic_stringIcNS_11char_traitsIcEENS_9allocatorIcEEEE9JSONValueEEPNS_11__tree_nodeIS9_PvEElE8__get_npB7v160006Ev, symObjAddr: 0xF9AC, symBinAddr: 0x100011094, symSize: 0x18 }
  - { offsetInCU: 0x3459C, offset: 0x3459C, size: 0x8, addend: 0x0, symName: __ZNSt3__115__tree_iteratorINS_12__value_typeINS_12basic_stringIcNS_11char_traitsIcEENS_9allocatorIcEEEE9JSONValueEEPNS_11__tree_nodeIS9_PvEElEC1B7v160006EPNS_15__tree_end_nodeIPNS_16__tree_node_baseISB_EEEE, symObjAddr: 0xF9C4, symBinAddr: 0x1000110AC, symSize: 0x34 }
  - { offsetInCU: 0x345D5, offset: 0x345D5, size: 0x8, addend: 0x0, symName: __ZNSt3__115__tree_iteratorINS_12__value_typeINS_12basic_stringIcNS_11char_traitsIcEENS_9allocatorIcEEEE9JSONValueEEPNS_11__tree_nodeIS9_PvEElEC2B7v160006EPNS_15__tree_end_nodeIPNS_16__tree_node_baseISB_EEEE, symObjAddr: 0xF9F8, symBinAddr: 0x1000110E0, symSize: 0x20 }
  - { offsetInCU: 0x3460E, offset: 0x3460E, size: 0x8, addend: 0x0, symName: __ZNSt3__121__tree_const_iteratorINS_12__value_typeINS_12basic_stringIcNS_11char_traitsIcEENS_9allocatorIcEEEE9JSONValueEEPNS_11__tree_nodeIS9_PvEElEC2B7v160006ENS_15__tree_iteratorIS9_SD_lEE, symObjAddr: 0xFA18, symBinAddr: 0x100011100, symSize: 0x20 }
  - { offsetInCU: 0x34647, offset: 0x34647, size: 0x8, addend: 0x0, symName: __ZNSt3__121__tree_const_iteratorINS_12__value_typeINS_12basic_stringIcNS_11char_traitsIcEENS_9allocatorIcEEEE9JSONValueEEPNS_11__tree_nodeIS9_PvEElEppB7v160006Ev, symObjAddr: 0xFC08, symBinAddr: 0x1000112F0, symSize: 0x38 }
  - { offsetInCU: 0x3466D, offset: 0x3466D, size: 0x8, addend: 0x0, symName: __ZNSt3__116allocator_traitsINS_9allocatorINS_11__tree_nodeINS_12__value_typeINS_12basic_stringIcNS_11char_traitsIcEENS1_IcEEEE9JSONValueEEPvEEEEE9constructB7v160006INS_4pairIKS8_S9_EEJRKSI_EvEEvRSD_PT_DpOT0_, symObjAddr: 0xFD00, symBinAddr: 0x1000113E8, symSize: 0x34 }
  - { offsetInCU: 0x346C4, offset: 0x346C4, size: 0x8, addend: 0x0, symName: __ZNSt3__19allocatorINS_11__tree_nodeINS_12__value_typeINS_12basic_stringIcNS_11char_traitsIcEENS0_IcEEEE9JSONValueEEPvEEE9constructB7v160006INS_4pairIKS7_S8_EEJRKSG_EEEvPT_DpOT0_, symObjAddr: 0xFD34, symBinAddr: 0x10001141C, symSize: 0x30 }
  - { offsetInCU: 0x3471A, offset: 0x3471A, size: 0x8, addend: 0x0, symName: __ZNSt3__14pairIKNS_12basic_stringIcNS_11char_traitsIcEENS_9allocatorIcEEEE9JSONValueEC1ERKS9_, symObjAddr: 0xFD64, symBinAddr: 0x10001144C, symSize: 0x34 }
  - { offsetInCU: 0x3474F, offset: 0x3474F, size: 0x8, addend: 0x0, symName: __ZNSt3__14pairIKNS_12basic_stringIcNS_11char_traitsIcEENS_9allocatorIcEEEE9JSONValueEC2ERKS9_, symObjAddr: 0xFD98, symBinAddr: 0x100011480, symSize: 0x70 }
  - { offsetInCU: 0x34784, offset: 0x34784, size: 0x8, addend: 0x0, symName: __ZNSt3__114__map_iteratorINS_15__tree_iteratorINS_12__value_typeINS_12basic_stringIcNS_11char_traitsIcEENS_9allocatorIcEEEE9JSONValueEEPNS_11__tree_nodeISA_PvEElEEEC2B7v160006ESF_, symObjAddr: 0xFE08, symBinAddr: 0x1000114F0, symSize: 0x20 }
  - { offsetInCU: 0x347BD, offset: 0x347BD, size: 0x8, addend: 0x0, symName: __ZNSt3__120__map_const_iteratorINS_21__tree_const_iteratorINS_12__value_typeINS_12basic_stringIcNS_11char_traitsIcEENS_9allocatorIcEEEE9JSONValueEEPNS_11__tree_nodeISA_PvEElEEEC2B7v160006ESF_, symObjAddr: 0xFE28, symBinAddr: 0x100011510, symSize: 0x20 }
  - { offsetInCU: 0x347F6, offset: 0x347F6, size: 0x8, addend: 0x0, symName: __ZNKSt3__121__tree_const_iteratorINS_12__value_typeINS_12basic_stringIcNS_11char_traitsIcEENS_9allocatorIcEEEE9JSONValueEEPNS_11__tree_nodeIS9_PvEElEptB7v160006Ev, symObjAddr: 0xFE48, symBinAddr: 0x100011530, symSize: 0x2C }
  - { offsetInCU: 0x3481C, offset: 0x3481C, size: 0x8, addend: 0x0, symName: __ZNSt3__114pointer_traitsIPKNS_12__value_typeINS_12basic_stringIcNS_11char_traitsIcEENS_9allocatorIcEEEE9JSONValueEEE10pointer_toB7v160006ERSA_, symObjAddr: 0xFE74, symBinAddr: 0x10001155C, symSize: 0x14 }
  - { offsetInCU: 0x3483F, offset: 0x3483F, size: 0x8, addend: 0x0, symName: __ZNKSt3__16__treeINS_12__value_typeINS_12basic_stringIcNS_11char_traitsIcEENS_9allocatorIcEEEE9JSONValueEENS_19__map_value_compareIS7_S9_NS_4lessIS7_EELb1EEENS5_IS9_EEE5beginB7v160006Ev, symObjAddr: 0xFE88, symBinAddr: 0x100011570, symSize: 0x34 }
  - { offsetInCU: 0x34865, offset: 0x34865, size: 0x8, addend: 0x0, symName: __ZNKSt3__16__treeINS_12__value_typeINS_12basic_stringIcNS_11char_traitsIcEENS_9allocatorIcEEEE9JSONValueEENS_19__map_value_compareIS7_S9_NS_4lessIS7_EELb1EEENS5_IS9_EEE12__begin_nodeB7v160006Ev, symObjAddr: 0xFEBC, symBinAddr: 0x1000115A4, symSize: 0x14 }
  - { offsetInCU: 0x3488B, offset: 0x3488B, size: 0x8, addend: 0x0, symName: __ZNSt3__121__tree_const_iteratorINS_12__value_typeINS_12basic_stringIcNS_11char_traitsIcEENS_9allocatorIcEEEE9JSONValueEEPNS_11__tree_nodeIS9_PvEElEC1B7v160006EPNS_15__tree_end_nodeIPNS_16__tree_node_baseISB_EEEE, symObjAddr: 0xFED0, symBinAddr: 0x1000115B8, symSize: 0x34 }
  - { offsetInCU: 0x348C4, offset: 0x348C4, size: 0x8, addend: 0x0, symName: __ZNSt3__121__tree_const_iteratorINS_12__value_typeINS_12basic_stringIcNS_11char_traitsIcEENS_9allocatorIcEEEE9JSONValueEEPNS_11__tree_nodeIS9_PvEElEC2B7v160006EPNS_15__tree_end_nodeIPNS_16__tree_node_baseISB_EEEE, symObjAddr: 0xFF04, symBinAddr: 0x1000115EC, symSize: 0x20 }
  - { offsetInCU: 0x348FD, offset: 0x348FD, size: 0x8, addend: 0x0, symName: __ZNKSt3__16__treeINS_12__value_typeINS_12basic_stringIcNS_11char_traitsIcEENS_9allocatorIcEEEE9JSONValueEENS_19__map_value_compareIS7_S9_NS_4lessIS7_EELb1EEENS5_IS9_EEE3endB7v160006Ev, symObjAddr: 0xFF24, symBinAddr: 0x10001160C, symSize: 0x34 }
  - { offsetInCU: 0x34923, offset: 0x34923, size: 0x8, addend: 0x0, symName: __ZNSt3__16__treeINS_12__value_typeINS_12basic_stringIcNS_11char_traitsIcEENS_9allocatorIcEEEE9JSONValueEENS_19__map_value_compareIS7_S9_NS_4lessIS7_EELb1EEENS5_IS9_EEED2Ev, symObjAddr: 0xFF58, symBinAddr: 0x100011640, symSize: 0x38 }
  - { offsetInCU: 0x3494F, offset: 0x3494F, size: 0x8, addend: 0x0, symName: __ZNSt3__16__treeINS_12__value_typeINS_12basic_stringIcNS_11char_traitsIcEENS_9allocatorIcEEEE9JSONValueEENS_19__map_value_compareIS7_S9_NS_4lessIS7_EELb1EEENS5_IS9_EEE7destroyEPNS_11__tree_nodeIS9_PvEE, symObjAddr: 0xFF90, symBinAddr: 0x100011678, symSize: 0xA8 }
  - { offsetInCU: 0x3499B, offset: 0x3499B, size: 0x8, addend: 0x0, symName: __ZNSt3__16vectorI9JSONValueNS_9allocatorIS1_EEED2B7v160006Ev, symObjAddr: 0x10038, symBinAddr: 0x100011720, symSize: 0x44 }
  - { offsetInCU: 0x349C5, offset: 0x349C5, size: 0x8, addend: 0x0, symName: __ZNSt3__128__exception_guard_exceptionsINS_29_AllocatorDestroyRangeReverseINS_9allocatorI9JSONValueEEPS3_EEED2B7v160006Ev, symObjAddr: 0x1007C, symBinAddr: 0x100011764, symSize: 0x50 }
  - { offsetInCU: 0x349EF, offset: 0x349EF, size: 0x8, addend: 0x0, symName: __ZNKSt3__129_AllocatorDestroyRangeReverseINS_9allocatorI9JSONValueEEPS2_EclB7v160006Ev, symObjAddr: 0x100CC, symBinAddr: 0x1000117B4, symSize: 0x68 }
  - { offsetInCU: 0x34A15, offset: 0x34A15, size: 0x8, addend: 0x0, symName: __ZNSt3__116reverse_iteratorIP9JSONValueEC1B7v160006ES2_, symObjAddr: 0x101A4, symBinAddr: 0x10001188C, symSize: 0x34 }
  - { offsetInCU: 0x34A4D, offset: 0x34A4D, size: 0x8, addend: 0x0, symName: __ZNSt3__116reverse_iteratorIP9JSONValueEppB7v160006Ev, symObjAddr: 0x10244, symBinAddr: 0x10001192C, symSize: 0x20 }
  - { offsetInCU: 0x34A73, offset: 0x34A73, size: 0x8, addend: 0x0, symName: __ZNKSt3__116reverse_iteratorIP9JSONValueE4baseB7v160006Ev, symObjAddr: 0x10264, symBinAddr: 0x10001194C, symSize: 0x18 }
  - { offsetInCU: 0x34A9F, offset: 0x34A9F, size: 0x8, addend: 0x0, symName: __ZNSt3__119__to_address_helperINS_16reverse_iteratorIP9JSONValueEEvE6__callB7v160006ERKS4_, symObjAddr: 0x1027C, symBinAddr: 0x100011964, symSize: 0x38 }
  - { offsetInCU: 0x34AC2, offset: 0x34AC2, size: 0x8, addend: 0x0, symName: __ZNKSt3__116reverse_iteratorIP9JSONValueEptB7v160006Ev, symObjAddr: 0x102B4, symBinAddr: 0x10001199C, symSize: 0x24 }
  - { offsetInCU: 0x34AE8, offset: 0x34AE8, size: 0x8, addend: 0x0, symName: __ZNKSt3__116reverse_iteratorIP9JSONValueEdeB7v160006Ev, symObjAddr: 0x102D8, symBinAddr: 0x1000119C0, symSize: 0x28 }
  - { offsetInCU: 0x34B1C, offset: 0x34B1C, size: 0x8, addend: 0x0, symName: __ZNSt3__116reverse_iteratorIP9JSONValueEC2B7v160006ES2_, symObjAddr: 0x10300, symBinAddr: 0x1000119E8, symSize: 0x28 }
  - { offsetInCU: 0x34B54, offset: 0x34B54, size: 0x8, addend: 0x0, symName: __ZNSt3__117__compressed_pairIP9JSONValueNS_9allocatorIS1_EEE6secondB7v160006Ev, symObjAddr: 0x10328, symBinAddr: 0x100011A10, symSize: 0x24 }
  - { offsetInCU: 0x34B7A, offset: 0x34B7A, size: 0x8, addend: 0x0, symName: __ZNSt3__122__compressed_pair_elemINS_9allocatorI9JSONValueEELi1ELb1EE5__getB7v160006Ev, symObjAddr: 0x1034C, symBinAddr: 0x100011A34, symSize: 0x14 }
  - { offsetInCU: 0x34BA0, offset: 0x34BA0, size: 0x8, addend: 0x0, symName: __ZNSt3__16vectorI9JSONValueNS_9allocatorIS1_EEE21_ConstructTransactionD2B7v160006Ev, symObjAddr: 0x10360, symBinAddr: 0x100011A48, symSize: 0x20 }
  - { offsetInCU: 0x34BCA, offset: 0x34BCA, size: 0x8, addend: 0x0, symName: __ZNSt3__16vectorI9JSONValueNS_9allocatorIS1_EEE27__invalidate_iterators_pastB7v160006EPS1_, symObjAddr: 0x10380, symBinAddr: 0x100011A68, symSize: 0x14 }
  - { offsetInCU: 0x34C01, offset: 0x34C01, size: 0x8, addend: 0x0, symName: __ZNKSt3__16vectorI9JSONValueNS_9allocatorIS1_EEE17__annotate_shrinkB7v160006Em, symObjAddr: 0x10394, symBinAddr: 0x100011A7C, symSize: 0xD0 }
  - { offsetInCU: 0x34C36, offset: 0x34C36, size: 0x8, addend: 0x0, symName: __ZNSt3__16vectorI9JSONValueNS_9allocatorIS1_EEE5clearB7v160006Ev, symObjAddr: 0x10464, symBinAddr: 0x100011B4C, symSize: 0x54 }
  - { offsetInCU: 0x34C6B, offset: 0x34C6B, size: 0x8, addend: 0x0, symName: __ZNSt3__16vectorI9JSONValueNS_9allocatorIS1_EEE9__end_capB7v160006Ev, symObjAddr: 0x104B8, symBinAddr: 0x100011BA0, symSize: 0x28 }
  - { offsetInCU: 0x34C91, offset: 0x34C91, size: 0x8, addend: 0x0, symName: __ZNSt3__117__compressed_pairIP9JSONValueNS_9allocatorIS1_EEE5firstB7v160006Ev, symObjAddr: 0x104E0, symBinAddr: 0x100011BC8, symSize: 0x24 }
  - { offsetInCU: 0x34CB7, offset: 0x34CB7, size: 0x8, addend: 0x0, symName: __ZNSt3__122__compressed_pair_elemIP9JSONValueLi0ELb0EE5__getB7v160006Ev, symObjAddr: 0x10504, symBinAddr: 0x100011BEC, symSize: 0x14 }
  - { offsetInCU: 0x34CDD, offset: 0x34CDD, size: 0x8, addend: 0x0, symName: __ZNKSt3__16vectorI9JSONValueNS_9allocatorIS1_EEE8max_sizeEv, symObjAddr: 0x10518, symBinAddr: 0x100011C00, symSize: 0x60 }
  - { offsetInCU: 0x34D05, offset: 0x34D05, size: 0x8, addend: 0x0, symName: __ZNKSt3__16vectorI9JSONValueNS_9allocatorIS1_EEE20__throw_length_errorB7v160006Ev, symObjAddr: 0x10578, symBinAddr: 0x100011C60, symSize: 0x1C }
  - { offsetInCU: 0x34D2B, offset: 0x34D2B, size: 0x8, addend: 0x0, symName: __ZNKSt3__16vectorI9JSONValueNS_9allocatorIS1_EEE14__annotate_newB7v160006Em, symObjAddr: 0x105D4, symBinAddr: 0x100011CBC, symSize: 0xC8 }
  - { offsetInCU: 0x34D60, offset: 0x34D60, size: 0x8, addend: 0x0, symName: __ZNSt3__116allocator_traitsINS_9allocatorI9JSONValueEEE8max_sizeB7v160006IS3_vEEmRKS3_, symObjAddr: 0x1069C, symBinAddr: 0x100011D84, symSize: 0x24 }
  - { offsetInCU: 0x34D8E, offset: 0x34D8E, size: 0x8, addend: 0x0, symName: __ZNSt3__114numeric_limitsIlE3maxB7v160006Ev, symObjAddr: 0x106C0, symBinAddr: 0x100011DA8, symSize: 0x14 }
  - { offsetInCU: 0x34DA2, offset: 0x34DA2, size: 0x8, addend: 0x0, symName: __ZNKSt3__19allocatorI9JSONValueE8max_sizeB7v160006Ev, symObjAddr: 0x106D4, symBinAddr: 0x100011DBC, symSize: 0x18 }
  - { offsetInCU: 0x34DC8, offset: 0x34DC8, size: 0x8, addend: 0x0, symName: __ZNSt3__123__libcpp_numeric_limitsIlLb1EE3maxB7v160006Ev, symObjAddr: 0x106EC, symBinAddr: 0x100011DD4, symSize: 0x8 }
  - { offsetInCU: 0x34DDC, offset: 0x34DDC, size: 0x8, addend: 0x0, symName: __ZNSt12length_errorC1B7v160006EPKc, symObjAddr: 0x10758, symBinAddr: 0x100011E40, symSize: 0x34 }
  - { offsetInCU: 0x34E14, offset: 0x34E14, size: 0x8, addend: 0x0, symName: __ZNSt12length_errorC2B7v160006EPKc, symObjAddr: 0x1078C, symBinAddr: 0x100011E74, symSize: 0x4C }
  - { offsetInCU: 0x34E4C, offset: 0x34E4C, size: 0x8, addend: 0x0, symName: __ZNSt3__19allocatorI9JSONValueE8allocateB7v160006Em, symObjAddr: 0x107D8, symBinAddr: 0x100011EC0, symSize: 0x5C }
  - { offsetInCU: 0x34E80, offset: 0x34E80, size: 0x8, addend: 0x0, symName: __ZNSt3__16__treeINS_12__value_typeINS_12basic_stringIcNS_11char_traitsIcEENS_9allocatorIcEEEE9JSONValueEENS_19__map_value_compareIS7_S9_NS_4lessIS7_EELb1EEENS5_IS9_EEEaSERKSF_, symObjAddr: 0x10834, symBinAddr: 0x100011F1C, symSize: 0x8C }
  - { offsetInCU: 0x34EB7, offset: 0x34EB7, size: 0x8, addend: 0x0, symName: __ZNSt3__16__treeINS_12__value_typeINS_12basic_stringIcNS_11char_traitsIcEENS_9allocatorIcEEEE9JSONValueEENS_19__map_value_compareIS7_S9_NS_4lessIS7_EELb1EEENS5_IS9_EEE19__copy_assign_allocB7v160006ERKSF_, symObjAddr: 0x108C0, symBinAddr: 0x100011FA8, symSize: 0x2C }
  - { offsetInCU: 0x34EEC, offset: 0x34EEC, size: 0x8, addend: 0x0, symName: __ZNSt3__16__treeINS_12__value_typeINS_12basic_stringIcNS_11char_traitsIcEENS_9allocatorIcEEEE9JSONValueEENS_19__map_value_compareIS7_S9_NS_4lessIS7_EELb1EEENS5_IS9_EEE14__assign_multiINS_21__tree_const_iteratorIS9_PNS_11__tree_nodeIS9_PvEElEEEEvT_SN_, symObjAddr: 0x108EC, symBinAddr: 0x100011FD4, symSize: 0x174 }
  - { offsetInCU: 0x34F50, offset: 0x34F50, size: 0x8, addend: 0x0, symName: __ZNSt3__16__treeINS_12__value_typeINS_12basic_stringIcNS_11char_traitsIcEENS_9allocatorIcEEEE9JSONValueEENS_19__map_value_compareIS7_S9_NS_4lessIS7_EELb1EEENS5_IS9_EEE19__copy_assign_allocB7v160006ERKSF_NS_17integral_constantIbLb0EEE, symObjAddr: 0x10A60, symBinAddr: 0x100012148, symSize: 0x14 }
  - { offsetInCU: 0x34FA9, offset: 0x34FA9, size: 0x8, addend: 0x0, symName: __ZNSt3__16__treeINS_12__value_typeINS_12basic_stringIcNS_11char_traitsIcEENS_9allocatorIcEEEE9JSONValueEENS_19__map_value_compareIS7_S9_NS_4lessIS7_EELb1EEENS5_IS9_EEE18_DetachedTreeCacheC1B7v160006EPSF_, symObjAddr: 0x10A74, symBinAddr: 0x10001215C, symSize: 0x34 }
  - { offsetInCU: 0x34FE2, offset: 0x34FE2, size: 0x8, addend: 0x0, symName: __ZNKSt3__16__treeINS_12__value_typeINS_12basic_stringIcNS_11char_traitsIcEENS_9allocatorIcEEEE9JSONValueEENS_19__map_value_compareIS7_S9_NS_4lessIS7_EELb1EEENS5_IS9_EEE18_DetachedTreeCache5__getB7v160006Ev, symObjAddr: 0x10AA8, symBinAddr: 0x100012190, symSize: 0x18 }
  - { offsetInCU: 0x35008, offset: 0x35008, size: 0x8, addend: 0x0, symName: __ZNSt3__112__value_typeINS_12basic_stringIcNS_11char_traitsIcEENS_9allocatorIcEEEE9JSONValueEaSB7v160006ERKS8_, symObjAddr: 0x10AC0, symBinAddr: 0x1000121A8, symSize: 0x60 }
  - { offsetInCU: 0x3503D, offset: 0x3503D, size: 0x8, addend: 0x0, symName: __ZNSt3__16__treeINS_12__value_typeINS_12basic_stringIcNS_11char_traitsIcEENS_9allocatorIcEEEE9JSONValueEENS_19__map_value_compareIS7_S9_NS_4lessIS7_EELb1EEENS5_IS9_EEE19__node_insert_multiEPNS_11__tree_nodeIS9_PvEE, symObjAddr: 0x10B20, symBinAddr: 0x100012208, symSize: 0x70 }
  - { offsetInCU: 0x35092, offset: 0x35092, size: 0x8, addend: 0x0, symName: __ZNSt3__16__treeINS_12__value_typeINS_12basic_stringIcNS_11char_traitsIcEENS_9allocatorIcEEEE9JSONValueEENS_19__map_value_compareIS7_S9_NS_4lessIS7_EELb1EEENS5_IS9_EEE18_DetachedTreeCache9__advanceB7v160006Ev, symObjAddr: 0x10B90, symBinAddr: 0x100012278, symSize: 0x58 }
  - { offsetInCU: 0x350B8, offset: 0x350B8, size: 0x8, addend: 0x0, symName: __ZNSt3__16__treeINS_12__value_typeINS_12basic_stringIcNS_11char_traitsIcEENS_9allocatorIcEEEE9JSONValueEENS_19__map_value_compareIS7_S9_NS_4lessIS7_EELb1EEENS5_IS9_EEE18_DetachedTreeCacheD1B7v160006Ev, symObjAddr: 0x10BE8, symBinAddr: 0x1000122D0, symSize: 0x2C }
  - { offsetInCU: 0x350E2, offset: 0x350E2, size: 0x8, addend: 0x0, symName: __ZNSt3__16__treeINS_12__value_typeINS_12basic_stringIcNS_11char_traitsIcEENS_9allocatorIcEEEE9JSONValueEENS_19__map_value_compareIS7_S9_NS_4lessIS7_EELb1EEENS5_IS9_EEE14__insert_multiB7v160006IRKNS_4pairIKS7_S8_EEEENS_15__tree_iteratorIS9_PNS_11__tree_nodeIS9_PvEElEEOT_, symObjAddr: 0x10C14, symBinAddr: 0x1000122FC, symSize: 0x34 }
  - { offsetInCU: 0x35120, offset: 0x35120, size: 0x8, addend: 0x0, symName: __ZNSt3__122__tree_key_value_typesINS_12__value_typeINS_12basic_stringIcNS_11char_traitsIcEENS_9allocatorIcEEEE9JSONValueEEE11__get_valueB7v160006ERKS9_, symObjAddr: 0x10C48, symBinAddr: 0x100012330, symSize: 0x24 }
  - { offsetInCU: 0x35144, offset: 0x35144, size: 0x8, addend: 0x0, symName: __ZNSt3__16__treeINS_12__value_typeINS_12basic_stringIcNS_11char_traitsIcEENS_9allocatorIcEEEE9JSONValueEENS_19__map_value_compareIS7_S9_NS_4lessIS7_EELb1EEENS5_IS9_EEE18_DetachedTreeCacheC2B7v160006EPSF_, symObjAddr: 0x10C6C, symBinAddr: 0x100012354, symSize: 0x4C }
  - { offsetInCU: 0x3517D, offset: 0x3517D, size: 0x8, addend: 0x0, symName: __ZNSt3__16__treeINS_12__value_typeINS_12basic_stringIcNS_11char_traitsIcEENS_9allocatorIcEEEE9JSONValueEENS_19__map_value_compareIS7_S9_NS_4lessIS7_EELb1EEENS5_IS9_EEE18_DetachedTreeCache18__detach_from_treeEPSF_, symObjAddr: 0x10CB8, symBinAddr: 0x1000123A0, symSize: 0xA0 }
  - { offsetInCU: 0x351B2, offset: 0x351B2, size: 0x8, addend: 0x0, symName: __ZNSt3__112__value_typeINS_12basic_stringIcNS_11char_traitsIcEENS_9allocatorIcEEEE9JSONValueE5__refB7v160006Ev, symObjAddr: 0x10D58, symBinAddr: 0x100012440, symSize: 0x44 }
  - { offsetInCU: 0x351E7, offset: 0x351E7, size: 0x8, addend: 0x0, symName: __ZNSt3__14pairIRNS_12basic_stringIcNS_11char_traitsIcEENS_9allocatorIcEEEER9JSONValueEaSB7v160006IRKNS0_IKS6_S8_EELPv0EEERSA_OT_, symObjAddr: 0x10D9C, symBinAddr: 0x100012484, symSize: 0x5C }
  - { offsetInCU: 0x3522B, offset: 0x3522B, size: 0x8, addend: 0x0, symName: __ZNSt3__14pairIRNS_12basic_stringIcNS_11char_traitsIcEENS_9allocatorIcEEEER9JSONValueEC1B7v160006ILb1ELPv0EEES7_S9_, symObjAddr: 0x10DF8, symBinAddr: 0x1000124E0, symSize: 0x3C }
  - { offsetInCU: 0x35281, offset: 0x35281, size: 0x8, addend: 0x0, symName: __ZNSt3__14pairIRNS_12basic_stringIcNS_11char_traitsIcEENS_9allocatorIcEEEER9JSONValueEC2B7v160006ILb1ELPv0EEES7_S9_, symObjAddr: 0x10E34, symBinAddr: 0x10001251C, symSize: 0x2C }
  - { offsetInCU: 0x352D7, offset: 0x352D7, size: 0x8, addend: 0x0, symName: __ZNSt3__110__get_pairILm0EE3getB7v160006IKNS_12basic_stringIcNS_11char_traitsIcEENS_9allocatorIcEEEE9JSONValueEERKT_RKNS_4pairISB_T0_EE, symObjAddr: 0x10EA8, symBinAddr: 0x100012590, symSize: 0x14 }
  - { offsetInCU: 0x3530D, offset: 0x3530D, size: 0x8, addend: 0x0, symName: __ZNSt3__110__get_pairILm1EE3getB7v160006IKNS_12basic_stringIcNS_11char_traitsIcEENS_9allocatorIcEEEE9JSONValueEERKT0_RKNS_4pairIT_SB_EE, symObjAddr: 0x10EBC, symBinAddr: 0x1000125A4, symSize: 0x18 }
  - { offsetInCU: 0x35343, offset: 0x35343, size: 0x8, addend: 0x0, symName: __ZNSt3__16__treeINS_12__value_typeINS_12basic_stringIcNS_11char_traitsIcEENS_9allocatorIcEEEE9JSONValueEENS_19__map_value_compareIS7_S9_NS_4lessIS7_EELb1EEENS5_IS9_EEE16__find_leaf_highERPNS_15__tree_end_nodeIPNS_16__tree_node_baseIPvEEEERKS7_, symObjAddr: 0x10ED4, symBinAddr: 0x1000125BC, symSize: 0x124 }
  - { offsetInCU: 0x35398, offset: 0x35398, size: 0x8, addend: 0x0, symName: __ZNSt3__122__tree_key_value_typesINS_12__value_typeINS_12basic_stringIcNS_11char_traitsIcEENS_9allocatorIcEEEE9JSONValueEEE9__get_keyB7v160006ERKS9_, symObjAddr: 0x10FF8, symBinAddr: 0x1000126E0, symSize: 0x24 }
  - { offsetInCU: 0x353BC, offset: 0x353BC, size: 0x8, addend: 0x0, symName: __ZNSt3__16__treeINS_12__value_typeINS_12basic_stringIcNS_11char_traitsIcEENS_9allocatorIcEEEE9JSONValueEENS_19__map_value_compareIS7_S9_NS_4lessIS7_EELb1EEENS5_IS9_EEE18_DetachedTreeCache13__detach_nextEPNS_11__tree_nodeIS9_PvEE, symObjAddr: 0x1101C, symBinAddr: 0x100012704, symSize: 0xF0 }
  - { offsetInCU: 0x353E2, offset: 0x353E2, size: 0x8, addend: 0x0, symName: __ZNSt3__16__treeINS_12__value_typeINS_12basic_stringIcNS_11char_traitsIcEENS_9allocatorIcEEEE9JSONValueEENS_19__map_value_compareIS7_S9_NS_4lessIS7_EELb1EEENS5_IS9_EEE18_DetachedTreeCacheD2B7v160006Ev, symObjAddr: 0x1117C, symBinAddr: 0x100012864, symSize: 0x9C }
  - { offsetInCU: 0x3540C, offset: 0x3540C, size: 0x8, addend: 0x0, symName: __ZNSt3__16__treeINS_12__value_typeINS_12basic_stringIcNS_11char_traitsIcEENS_9allocatorIcEEEE9JSONValueEENS_19__map_value_compareIS7_S9_NS_4lessIS7_EELb1EEENS5_IS9_EEE15__emplace_multiIJRKNS_4pairIKS7_S8_EEEEENS_15__tree_iteratorIS9_PNS_11__tree_nodeIS9_PvEElEEDpOT_, symObjAddr: 0x11218, symBinAddr: 0x100012900, symSize: 0xD8 }
  - { offsetInCU: 0x3547C, offset: 0x3547C, size: 0x8, addend: 0x0, symName: __ZNSt3__16vectorI9JSONValueNS_9allocatorIS1_EEE9push_backB7v160006EOS1_, symObjAddr: 0x112F0, symBinAddr: 0x1000129D8, symSize: 0x6C }
  - { offsetInCU: 0x354B9, offset: 0x354B9, size: 0x8, addend: 0x0, symName: __ZNSt3__16vectorI9JSONValueNS_9allocatorIS1_EEE22__construct_one_at_endB7v160006IJS1_EEEvDpOT_, symObjAddr: 0x1135C, symBinAddr: 0x100012A44, symSize: 0x90 }
  - { offsetInCU: 0x35508, offset: 0x35508, size: 0x8, addend: 0x0, symName: __ZNSt3__16vectorI9JSONValueNS_9allocatorIS1_EEE21__push_back_slow_pathIS1_EEvOT_, symObjAddr: 0x113EC, symBinAddr: 0x100012AD4, symSize: 0xD8 }
  - { offsetInCU: 0x35566, offset: 0x35566, size: 0x8, addend: 0x0, symName: __ZNSt3__116allocator_traitsINS_9allocatorI9JSONValueEEE9constructB7v160006IS2_JS2_EvEEvRS3_PT_DpOT0_, symObjAddr: 0x114C4, symBinAddr: 0x100012BAC, symSize: 0x34 }
  - { offsetInCU: 0x355BD, offset: 0x355BD, size: 0x8, addend: 0x0, symName: __ZNSt3__19allocatorI9JSONValueE9constructB7v160006IS1_JS1_EEEvPT_DpOT0_, symObjAddr: 0x114F8, symBinAddr: 0x100012BE0, symSize: 0x30 }
  - { offsetInCU: 0x35613, offset: 0x35613, size: 0x8, addend: 0x0, symName: __ZN9JSONValueC1EOS_, symObjAddr: 0x11528, symBinAddr: 0x100012C10, symSize: 0x34 }
  - { offsetInCU: 0x35648, offset: 0x35648, size: 0x8, addend: 0x0, symName: __ZN9JSONValueC2EOS_, symObjAddr: 0x1155C, symBinAddr: 0x100012C44, symSize: 0x84 }
  - { offsetInCU: 0x3567D, offset: 0x3567D, size: 0x8, addend: 0x0, symName: __ZNSt3__16vectorI9JSONValueNS_9allocatorIS1_EEEC1B7v160006EOS4_, symObjAddr: 0x115E0, symBinAddr: 0x100012CC8, symSize: 0x34 }
  - { offsetInCU: 0x356B8, offset: 0x356B8, size: 0x8, addend: 0x0, symName: __ZNSt3__13mapINS_12basic_stringIcNS_11char_traitsIcEENS_9allocatorIcEEEE9JSONValueNS_4lessIS6_EENS4_INS_4pairIKS6_S7_EEEEEC1B7v160006EOSE_, symObjAddr: 0x11614, symBinAddr: 0x100012CFC, symSize: 0x34 }
  - { offsetInCU: 0x356F1, offset: 0x356F1, size: 0x8, addend: 0x0, symName: __ZNSt3__16vectorI9JSONValueNS_9allocatorIS1_EEEC2B7v160006EOS4_, symObjAddr: 0x11648, symBinAddr: 0x100012D30, symSize: 0xDC }
  - { offsetInCU: 0x3572C, offset: 0x3572C, size: 0x8, addend: 0x0, symName: __ZNSt3__13mapINS_12basic_stringIcNS_11char_traitsIcEENS_9allocatorIcEEEE9JSONValueNS_4lessIS6_EENS4_INS_4pairIKS6_S7_EEEEEC2B7v160006EOSE_, symObjAddr: 0x11738, symBinAddr: 0x100012E20, symSize: 0x34 }
  - { offsetInCU: 0x35765, offset: 0x35765, size: 0x8, addend: 0x0, symName: __ZNSt3__16__treeINS_12__value_typeINS_12basic_stringIcNS_11char_traitsIcEENS_9allocatorIcEEEE9JSONValueEENS_19__map_value_compareIS7_S9_NS_4lessIS7_EELb1EEENS5_IS9_EEEC1EOSF_, symObjAddr: 0x1176C, symBinAddr: 0x100012E54, symSize: 0x34 }
  - { offsetInCU: 0x357A0, offset: 0x357A0, size: 0x8, addend: 0x0, symName: __ZNSt3__16__treeINS_12__value_typeINS_12basic_stringIcNS_11char_traitsIcEENS_9allocatorIcEEEE9JSONValueEENS_19__map_value_compareIS7_S9_NS_4lessIS7_EELb1EEENS5_IS9_EEEC2EOSF_, symObjAddr: 0x117A0, symBinAddr: 0x100012E88, symSize: 0xFC }
  - { offsetInCU: 0x357DB, offset: 0x357DB, size: 0x8, addend: 0x0, symName: __ZNSt3__114__split_bufferI9JSONValueRNS_9allocatorIS1_EEEC1EmmS4_, symObjAddr: 0x1189C, symBinAddr: 0x100012F84, symSize: 0x44 }
  - { offsetInCU: 0x35831, offset: 0x35831, size: 0x8, addend: 0x0, symName: __ZNSt3__114__split_bufferI9JSONValueRNS_9allocatorIS1_EEED1Ev, symObjAddr: 0x119F8, symBinAddr: 0x1000130E0, symSize: 0x2C }
  - { offsetInCU: 0x3585D, offset: 0x3585D, size: 0x8, addend: 0x0, symName: __ZNSt3__114__split_bufferI9JSONValueRNS_9allocatorIS1_EEEC2EmmS4_, symObjAddr: 0x11A24, symBinAddr: 0x10001310C, symSize: 0xE0 }
  - { offsetInCU: 0x358D0, offset: 0x358D0, size: 0x8, addend: 0x0, symName: __ZNSt3__117__compressed_pairIP9JSONValueRNS_9allocatorIS1_EEEC1B7v160006IDnS5_EEOT_OT0_, symObjAddr: 0x11B04, symBinAddr: 0x1000131EC, symSize: 0x3C }
  - { offsetInCU: 0x35928, offset: 0x35928, size: 0x8, addend: 0x0, symName: __ZNSt3__114__split_bufferI9JSONValueRNS_9allocatorIS1_EEE7__allocB7v160006Ev, symObjAddr: 0x11B40, symBinAddr: 0x100013228, symSize: 0x28 }
  - { offsetInCU: 0x3594E, offset: 0x3594E, size: 0x8, addend: 0x0, symName: __ZNSt3__114__split_bufferI9JSONValueRNS_9allocatorIS1_EEE9__end_capB7v160006Ev, symObjAddr: 0x11B68, symBinAddr: 0x100013250, symSize: 0x28 }
  - { offsetInCU: 0x35974, offset: 0x35974, size: 0x8, addend: 0x0, symName: __ZNSt3__117__compressed_pairIP9JSONValueRNS_9allocatorIS1_EEEC2B7v160006IDnS5_EEOT_OT0_, symObjAddr: 0x11B90, symBinAddr: 0x100013278, symSize: 0x48 }
  - { offsetInCU: 0x359CC, offset: 0x359CC, size: 0x8, addend: 0x0, symName: __ZNSt3__122__compressed_pair_elemIRNS_9allocatorI9JSONValueEELi1ELb0EEC2B7v160006IS4_vEEOT_, symObjAddr: 0x11BD8, symBinAddr: 0x1000132C0, symSize: 0x20 }
  - { offsetInCU: 0x35A0E, offset: 0x35A0E, size: 0x8, addend: 0x0, symName: __ZNSt3__117__compressed_pairIP9JSONValueRNS_9allocatorIS1_EEE6secondB7v160006Ev, symObjAddr: 0x11BF8, symBinAddr: 0x1000132E0, symSize: 0x28 }
  - { offsetInCU: 0x35A34, offset: 0x35A34, size: 0x8, addend: 0x0, symName: __ZNSt3__122__compressed_pair_elemIRNS_9allocatorI9JSONValueEELi1ELb0EE5__getB7v160006Ev, symObjAddr: 0x11C20, symBinAddr: 0x100013308, symSize: 0x18 }
  - { offsetInCU: 0x35A5A, offset: 0x35A5A, size: 0x8, addend: 0x0, symName: __ZNSt3__117__compressed_pairIP9JSONValueRNS_9allocatorIS1_EEE5firstB7v160006Ev, symObjAddr: 0x11C38, symBinAddr: 0x100013320, symSize: 0x24 }
  - { offsetInCU: 0x35A80, offset: 0x35A80, size: 0x8, addend: 0x0, symName: __ZNSt3__129_AllocatorDestroyRangeReverseINS_9allocatorI9JSONValueEENS_16reverse_iteratorIPS2_EEEC1B7v160006ERS3_RS6_S9_, symObjAddr: 0x11E00, symBinAddr: 0x1000134E8, symSize: 0x44 }
  - { offsetInCU: 0x35AD7, offset: 0x35AD7, size: 0x8, addend: 0x0, symName: __ZNSt3__128__exception_guard_exceptionsINS_29_AllocatorDestroyRangeReverseINS_9allocatorI9JSONValueEENS_16reverse_iteratorIPS3_EEEEE10__completeB7v160006Ev, symObjAddr: 0x11E44, symBinAddr: 0x10001352C, symSize: 0x1C }
  - { offsetInCU: 0x35AFD, offset: 0x35AFD, size: 0x8, addend: 0x0, symName: __ZNSt3__128__exception_guard_exceptionsINS_29_AllocatorDestroyRangeReverseINS_9allocatorI9JSONValueEENS_16reverse_iteratorIPS3_EEEEED1B7v160006Ev, symObjAddr: 0x11E60, symBinAddr: 0x100013548, symSize: 0x2C }
  - { offsetInCU: 0x35B27, offset: 0x35B27, size: 0x8, addend: 0x0, symName: __ZNSt3__128__exception_guard_exceptionsINS_29_AllocatorDestroyRangeReverseINS_9allocatorI9JSONValueEENS_16reverse_iteratorIPS3_EEEEEC1B7v160006ES8_, symObjAddr: 0x11E8C, symBinAddr: 0x100013574, symSize: 0x34 }
  - { offsetInCU: 0x35B60, offset: 0x35B60, size: 0x8, addend: 0x0, symName: __ZNSt3__128__exception_guard_exceptionsINS_29_AllocatorDestroyRangeReverseINS_9allocatorI9JSONValueEENS_16reverse_iteratorIPS3_EEEEEC2B7v160006ES8_, symObjAddr: 0x11EC0, symBinAddr: 0x1000135A8, symSize: 0x30 }
  - { offsetInCU: 0x35B99, offset: 0x35B99, size: 0x8, addend: 0x0, symName: __ZNSt3__129_AllocatorDestroyRangeReverseINS_9allocatorI9JSONValueEENS_16reverse_iteratorIPS2_EEEC2B7v160006ERS3_RS6_S9_, symObjAddr: 0x11EF0, symBinAddr: 0x1000135D8, symSize: 0x38 }
  - { offsetInCU: 0x35BF0, offset: 0x35BF0, size: 0x8, addend: 0x0, symName: __ZNSt3__128__exception_guard_exceptionsINS_29_AllocatorDestroyRangeReverseINS_9allocatorI9JSONValueEENS_16reverse_iteratorIPS3_EEEEED2B7v160006Ev, symObjAddr: 0x11F28, symBinAddr: 0x100013610, symSize: 0x50 }
  - { offsetInCU: 0x35C1A, offset: 0x35C1A, size: 0x8, addend: 0x0, symName: __ZNKSt3__129_AllocatorDestroyRangeReverseINS_9allocatorI9JSONValueEENS_16reverse_iteratorIPS2_EEEclB7v160006Ev, symObjAddr: 0x11F78, symBinAddr: 0x100013660, symSize: 0xB4 }
  - { offsetInCU: 0x35C41, offset: 0x35C41, size: 0x8, addend: 0x0, symName: __ZNSt3__116reverse_iteratorINS0_IP9JSONValueEEEC1B7v160006ES3_, symObjAddr: 0x1209C, symBinAddr: 0x100013784, symSize: 0x3C }
  - { offsetInCU: 0x35C79, offset: 0x35C79, size: 0x8, addend: 0x0, symName: __ZNSt3__116reverse_iteratorINS0_IP9JSONValueEEEppB7v160006Ev, symObjAddr: 0x1215C, symBinAddr: 0x100013844, symSize: 0x30 }
  - { offsetInCU: 0x35C9F, offset: 0x35C9F, size: 0x8, addend: 0x0, symName: __ZNKSt3__116reverse_iteratorINS0_IP9JSONValueEEE4baseB7v160006Ev, symObjAddr: 0x1218C, symBinAddr: 0x100013874, symSize: 0x24 }
  - { offsetInCU: 0x35CCB, offset: 0x35CCB, size: 0x8, addend: 0x0, symName: __ZNSt3__119__to_address_helperINS_16reverse_iteratorINS1_IP9JSONValueEEEEvE6__callB7v160006ERKS5_, symObjAddr: 0x121B0, symBinAddr: 0x100013898, symSize: 0x38 }
  - { offsetInCU: 0x35CEE, offset: 0x35CEE, size: 0x8, addend: 0x0, symName: __ZNKSt3__116reverse_iteratorINS0_IP9JSONValueEEEptB7v160006Ev, symObjAddr: 0x121E8, symBinAddr: 0x1000138D0, symSize: 0x24 }
  - { offsetInCU: 0x35D14, offset: 0x35D14, size: 0x8, addend: 0x0, symName: __ZNKSt3__116reverse_iteratorINS0_IP9JSONValueEEEdeB7v160006Ev, symObjAddr: 0x1220C, symBinAddr: 0x1000138F4, symSize: 0x34 }
  - { offsetInCU: 0x35D48, offset: 0x35D48, size: 0x8, addend: 0x0, symName: __ZNSt3__116reverse_iteratorIP9JSONValueEmmB7v160006Ev, symObjAddr: 0x12240, symBinAddr: 0x100013928, symSize: 0x20 }
  - { offsetInCU: 0x35D6E, offset: 0x35D6E, size: 0x8, addend: 0x0, symName: __ZNSt3__116reverse_iteratorINS0_IP9JSONValueEEEC2B7v160006ES3_, symObjAddr: 0x12260, symBinAddr: 0x100013948, symSize: 0x2C }
  - { offsetInCU: 0x35DA6, offset: 0x35DA6, size: 0x8, addend: 0x0, symName: __ZNSt3__114__split_bufferI9JSONValueRNS_9allocatorIS1_EEED2Ev, symObjAddr: 0x1228C, symBinAddr: 0x100013974, symSize: 0x8C }
  - { offsetInCU: 0x35DD2, offset: 0x35DD2, size: 0x8, addend: 0x0, symName: __ZNSt3__114__split_bufferI9JSONValueRNS_9allocatorIS1_EEE5clearB7v160006Ev, symObjAddr: 0x12318, symBinAddr: 0x100013A00, symSize: 0x28 }
  - { offsetInCU: 0x35DF8, offset: 0x35DF8, size: 0x8, addend: 0x0, symName: __ZNKSt3__114__split_bufferI9JSONValueRNS_9allocatorIS1_EEE8capacityB7v160006Ev, symObjAddr: 0x12340, symBinAddr: 0x100013A28, symSize: 0x40 }
  - { offsetInCU: 0x35E1E, offset: 0x35E1E, size: 0x8, addend: 0x0, symName: __ZNSt3__114__split_bufferI9JSONValueRNS_9allocatorIS1_EEE17__destruct_at_endB7v160006EPS1_, symObjAddr: 0x12380, symBinAddr: 0x100013A68, symSize: 0x2C }
  - { offsetInCU: 0x35E52, offset: 0x35E52, size: 0x8, addend: 0x0, symName: __ZNSt3__114__split_bufferI9JSONValueRNS_9allocatorIS1_EEE17__destruct_at_endB7v160006EPS1_NS_17integral_constantIbLb0EEE, symObjAddr: 0x123AC, symBinAddr: 0x100013A94, symSize: 0x80 }
  - { offsetInCU: 0x35E93, offset: 0x35E93, size: 0x8, addend: 0x0, symName: __ZNKSt3__114__split_bufferI9JSONValueRNS_9allocatorIS1_EEE9__end_capB7v160006Ev, symObjAddr: 0x1242C, symBinAddr: 0x100013B14, symSize: 0x28 }
  - { offsetInCU: 0x35EB9, offset: 0x35EB9, size: 0x8, addend: 0x0, symName: __ZNKSt3__117__compressed_pairIP9JSONValueRNS_9allocatorIS1_EEE5firstB7v160006Ev, symObjAddr: 0x12454, symBinAddr: 0x100013B3C, symSize: 0x24 }
  - { offsetInCU: 0x35EDF, offset: 0x35EDF, size: 0x8, addend: 0x0, symName: __ZNSt3__112basic_stringIcNS_11char_traitsIcEENS_9allocatorIcEEEpLB7v160006Ec, symObjAddr: 0x12478, symBinAddr: 0x100013B60, symSize: 0x34 }
  - { offsetInCU: 0x35F14, offset: 0x35F14, size: 0x8, addend: 0x0, symName: __ZNKSt3__112basic_stringIcNS_11char_traitsIcEENS_9allocatorIcEEE6substrB7v160006Emm, symObjAddr: 0x124AC, symBinAddr: 0x100013B94, symSize: 0x68 }
  - { offsetInCU: 0x35F58, offset: 0x35F58, size: 0x8, addend: 0x0, symName: __ZNSt3__19allocatorIcEC1B7v160006Ev, symObjAddr: 0x12514, symBinAddr: 0x100013BFC, symSize: 0x2C }
  - { offsetInCU: 0x35F82, offset: 0x35F82, size: 0x8, addend: 0x0, symName: __ZNSt3__13mapINS_12basic_stringIcNS_11char_traitsIcEENS_9allocatorIcEEEE9JSONValueNS_4lessIS6_EENS4_INS_4pairIKS6_S7_EEEEE2atERSB_, symObjAddr: 0x12540, symBinAddr: 0x100013C28, symSize: 0x6C }
  - { offsetInCU: 0x35FD7, offset: 0x35FD7, size: 0x8, addend: 0x0, symName: __ZNSt3__16vectorI9JSONValueNS_9allocatorIS1_EEE5beginB7v160006Ev, symObjAddr: 0x125AC, symBinAddr: 0x100013C94, symSize: 0x30 }
  - { offsetInCU: 0x35FFF, offset: 0x35FFF, size: 0x8, addend: 0x0, symName: __ZNSt3__16vectorI9JSONValueNS_9allocatorIS1_EEE3endB7v160006Ev, symObjAddr: 0x125DC, symBinAddr: 0x100013CC4, symSize: 0x30 }
  - { offsetInCU: 0x36027, offset: 0x36027, size: 0x8, addend: 0x0, symName: __ZNKSt3__111__wrap_iterIP9JSONValueEdeB7v160006Ev, symObjAddr: 0x12640, symBinAddr: 0x100013D28, symSize: 0x18 }
  - { offsetInCU: 0x3604D, offset: 0x3604D, size: 0x8, addend: 0x0, symName: __ZN11PSParameter8setTaperENS_5TAPERE, symObjAddr: 0x12658, symBinAddr: 0x100013D40, symSize: 0x20 }
  - { offsetInCU: 0x36081, offset: 0x36081, size: 0x8, addend: 0x0, symName: __ZNSt3__13mapINS_12basic_stringIcNS_11char_traitsIcEENS_9allocatorIcEEEE9JSONValueNS_4lessIS6_EENS4_INS_4pairIKS6_S7_EEEEED1B7v160006Ev, symObjAddr: 0x12678, symBinAddr: 0x100013D60, symSize: 0x2C }
  - { offsetInCU: 0x360AB, offset: 0x360AB, size: 0x8, addend: 0x0, symName: __ZNSt3__111__wrap_iterIP9JSONValueEppB7v160006Ev, symObjAddr: 0x126A4, symBinAddr: 0x100013D8C, symSize: 0x20 }
  - { offsetInCU: 0x360D1, offset: 0x360D1, size: 0x8, addend: 0x0, symName: __ZNSt12out_of_rangeC1B7v160006EPKc, symObjAddr: 0x12728, symBinAddr: 0x100013E10, symSize: 0x34 }
  - { offsetInCU: 0x36109, offset: 0x36109, size: 0x8, addend: 0x0, symName: __ZNSt12out_of_rangeC2B7v160006EPKc, symObjAddr: 0x1275C, symBinAddr: 0x100013E44, symSize: 0x4C }
  - { offsetInCU: 0x36141, offset: 0x36141, size: 0x8, addend: 0x0, symName: __ZNSt3__16vectorI9JSONValueNS_9allocatorIS1_EEE11__make_iterB7v160006EPS1_, symObjAddr: 0x127A8, symBinAddr: 0x100013E90, symSize: 0x34 }
  - { offsetInCU: 0x36176, offset: 0x36176, size: 0x8, addend: 0x0, symName: __ZNSt3__111__wrap_iterIP9JSONValueEC1B7v160006EPKvS2_, symObjAddr: 0x127DC, symBinAddr: 0x100013EC4, symSize: 0x3C }
  - { offsetInCU: 0x361BC, offset: 0x361BC, size: 0x8, addend: 0x0, symName: __ZNSt3__111__wrap_iterIP9JSONValueEC2B7v160006EPKvS2_, symObjAddr: 0x12818, symBinAddr: 0x100013F00, symSize: 0x24 }
  - { offsetInCU: 0x36202, offset: 0x36202, size: 0x8, addend: 0x0, symName: __ZNKSt3__111__wrap_iterIP9JSONValueE4baseB7v160006Ev, symObjAddr: 0x12884, symBinAddr: 0x100013F6C, symSize: 0x18 }
  - { offsetInCU: 0x36228, offset: 0x36228, size: 0x8, addend: 0x0, symName: __ZNSt3__13mapINS_12basic_stringIcNS_11char_traitsIcEENS_9allocatorIcEEEE9JSONValueNS_4lessIS6_EENS4_INS_4pairIKS6_S7_EEEEED2B7v160006Ev, symObjAddr: 0x1289C, symBinAddr: 0x100013F84, symSize: 0x2C }
  - { offsetInCU: 0x36252, offset: 0x36252, size: 0x8, addend: 0x0, symName: __ZN19PSControllerManager3addI9PSCButtonEEPT_RK3PSKRKNSt3__112basic_stringIcNS7_11char_traitsIcEENS7_9allocatorIcEEEE, symObjAddr: 0x12974, symBinAddr: 0x10001405C, symSize: 0xCC }
  - { offsetInCU: 0x3629D, offset: 0x3629D, size: 0x8, addend: 0x0, symName: __ZN12PSController10debounceMSEj, symObjAddr: 0x12A40, symBinAddr: 0x100014128, symSize: 0x30 }
  - { offsetInCU: 0x362D1, offset: 0x362D1, size: 0x8, addend: 0x0, symName: __ZN19PSControllerManager3addI16PSCPotentiometerEEPT_RK3PSKRKNSt3__112basic_stringIcNS7_11char_traitsIcEENS7_9allocatorIcEEEE, symObjAddr: 0x12A70, symBinAddr: 0x100014158, symSize: 0xCC }
  - { offsetInCU: 0x3631C, offset: 0x3631C, size: 0x8, addend: 0x0, symName: __ZN8PSConfig24loadControllerParametersEP12PSControllerRK9JSONValue, symObjAddr: 0x12B3C, symBinAddr: 0x100014224, symSize: 0x318 }
  - { offsetInCU: 0x36435, offset: 0x36435, size: 0x8, addend: 0x0, symName: __ZN18PSObjectCollection7getItemI9PSCButtonEEPT_RK3PSK, symObjAddr: 0x12E54, symBinAddr: 0x10001453C, symSize: 0x88 }
  - { offsetInCU: 0x36480, offset: 0x36480, size: 0x8, addend: 0x0, symName: __ZN18PSObjectCollection7addItemI9PSCButtonEEPT_S3_, symObjAddr: 0x12EDC, symBinAddr: 0x1000145C4, symSize: 0x70 }
  - { offsetInCU: 0x364D9, offset: 0x364D9, size: 0x8, addend: 0x0, symName: __ZN9PSCButtonC1ERK3PSKRKNSt3__112basic_stringIcNS3_11char_traitsIcEENS3_9allocatorIcEEEE, symObjAddr: 0x12F4C, symBinAddr: 0x100014634, symSize: 0x3C }
  - { offsetInCU: 0x3651F, offset: 0x3651F, size: 0x8, addend: 0x0, symName: __ZN9PSCButtonC2ERK3PSKRKNSt3__112basic_stringIcNS3_11char_traitsIcEENS3_9allocatorIcEEEE, symObjAddr: 0x12F88, symBinAddr: 0x100014670, symSize: 0xD4 }
  - { offsetInCU: 0x36565, offset: 0x36565, size: 0x8, addend: 0x0, symName: __ZN12PSControllerC2ERK3PSKRKNSt3__112basic_stringIcNS3_11char_traitsIcEENS3_9allocatorIcEEEEffb, symObjAddr: 0x1305C, symBinAddr: 0x100014744, symSize: 0x134 }
  - { offsetInCU: 0x365D5, offset: 0x365D5, size: 0x8, addend: 0x0, symName: __ZN12PSController13setValueRangeEff, symObjAddr: 0x13190, symBinAddr: 0x100014878, symSize: 0x3C }
  - { offsetInCU: 0x36617, offset: 0x36617, size: 0x8, addend: 0x0, symName: __ZN12PSControllerD2Ev, symObjAddr: 0x131CC, symBinAddr: 0x1000148B4, symSize: 0x6C }
  - { offsetInCU: 0x36641, offset: 0x36641, size: 0x8, addend: 0x0, symName: __ZN9PSCButtonD1Ev, symObjAddr: 0x13238, symBinAddr: 0x100014920, symSize: 0x2C }
  - { offsetInCU: 0x3666B, offset: 0x3666B, size: 0x8, addend: 0x0, symName: __ZN9PSCButtonD0Ev, symObjAddr: 0x13264, symBinAddr: 0x10001494C, symSize: 0x30 }
  - { offsetInCU: 0x36695, offset: 0x36695, size: 0x8, addend: 0x0, symName: __ZN12PSController6updateEv, symObjAddr: 0x13294, symBinAddr: 0x10001497C, symSize: 0x158 }
  - { offsetInCU: 0x36720, offset: 0x36720, size: 0x8, addend: 0x0, symName: __ZN9PSCButton8typeNameEv, symObjAddr: 0x133EC, symBinAddr: 0x100014AD4, symSize: 0x18 }
  - { offsetInCU: 0x36746, offset: 0x36746, size: 0x8, addend: 0x0, symName: __ZN12PSController9serializeEv, symObjAddr: 0x13404, symBinAddr: 0x100014AEC, symSize: 0x538 }
  - { offsetInCU: 0x3677A, offset: 0x3677A, size: 0x8, addend: 0x0, symName: __ZN12PSController6getKeyEv, symObjAddr: 0x1393C, symBinAddr: 0x100015024, symSize: 0x18 }
  - { offsetInCU: 0x367A0, offset: 0x367A0, size: 0x8, addend: 0x0, symName: __ZN12PSController6setPinEh, symObjAddr: 0x13954, symBinAddr: 0x10001503C, symSize: 0x20 }
  - { offsetInCU: 0x367D4, offset: 0x367D4, size: 0x8, addend: 0x0, symName: __ZN9PSCButton9readValueEv, symObjAddr: 0x13974, symBinAddr: 0x10001505C, symSize: 0xD8 }
  - { offsetInCU: 0x36816, offset: 0x36816, size: 0x8, addend: 0x0, symName: __ZN12PSController8setValueEf, symObjAddr: 0x13A4C, symBinAddr: 0x100015134, symSize: 0x8C }
  - { offsetInCU: 0x36858, offset: 0x36858, size: 0x8, addend: 0x0, symName: __ZN18PSObjectCollectionC1Ev, symObjAddr: 0x13AD8, symBinAddr: 0x1000151C0, symSize: 0x2C }
  - { offsetInCU: 0x36884, offset: 0x36884, size: 0x8, addend: 0x0, symName: __ZN12PSControllerD1Ev, symObjAddr: 0x13B04, symBinAddr: 0x1000151EC, symSize: 0x2C }
  - { offsetInCU: 0x368AE, offset: 0x368AE, size: 0x8, addend: 0x0, symName: __ZN12PSControllerD0Ev, symObjAddr: 0x13B30, symBinAddr: 0x100015218, symSize: 0x30 }
  - { offsetInCU: 0x368D8, offset: 0x368D8, size: 0x8, addend: 0x0, symName: __ZN12PSController8typeNameEv, symObjAddr: 0x13B60, symBinAddr: 0x100015248, symSize: 0x18 }
  - { offsetInCU: 0x368FE, offset: 0x368FE, size: 0x8, addend: 0x0, symName: __ZN12PSController9readValueEv, symObjAddr: 0x13B78, symBinAddr: 0x100015260, symSize: 0x144 }
  - { offsetInCU: 0x36932, offset: 0x36932, size: 0x8, addend: 0x0, symName: __ZNSt3__113unordered_mapI3PSKP8PSObjectNS_4hashIS1_EENS_8equal_toIS1_EENS_9allocatorINS_4pairIKS1_S3_EEEEE5clearB7v160006Ev, symObjAddr: 0x13CBC, symBinAddr: 0x1000153A4, symSize: 0x24 }
  - { offsetInCU: 0x36958, offset: 0x36958, size: 0x8, addend: 0x0, symName: __ZNSt3__112__hash_tableINS_17__hash_value_typeI3PSKP8PSObjectEENS_22__unordered_map_hasherIS2_S5_NS_4hashIS2_EENS_8equal_toIS2_EELb1EEENS_21__unordered_map_equalIS2_S5_SA_S8_Lb1EEENS_9allocatorIS5_EEE5clearEv, symObjAddr: 0x13CE0, symBinAddr: 0x1000153C8, symSize: 0xCC }
  - { offsetInCU: 0x369BA, offset: 0x369BA, size: 0x8, addend: 0x0, symName: __ZN9PSCButtonD2Ev, symObjAddr: 0x13DAC, symBinAddr: 0x100015494, symSize: 0x2C }
  - { offsetInCU: 0x369E4, offset: 0x369E4, size: 0x8, addend: 0x0, symName: __ZN12PSController16activeParametersEv, symObjAddr: 0x13DD8, symBinAddr: 0x1000154C0, symSize: 0x54 }
  - { offsetInCU: 0x36A0A, offset: 0x36A0A, size: 0x8, addend: 0x0, symName: __ZN11PSParameter22setValueFromControllerEf, symObjAddr: 0x13E2C, symBinAddr: 0x100015514, symSize: 0x38 }
  - { offsetInCU: 0x36A3E, offset: 0x36A3E, size: 0x8, addend: 0x0, symName: __ZN12PSController12useShiftModeEv, symObjAddr: 0x13E64, symBinAddr: 0x10001554C, symSize: 0x5C }
  - { offsetInCU: 0x36A64, offset: 0x36A64, size: 0x8, addend: 0x0, symName: __ZN12PSController14isShiftPressedEv, symObjAddr: 0x13EC0, symBinAddr: 0x1000155A8, symSize: 0x44 }
  - { offsetInCU: 0x36A8A, offset: 0x36A8A, size: 0x8, addend: 0x0, symName: __ZNKSt3__113unordered_mapI3PSKP8PSObjectNS_4hashIS1_EENS_8equal_toIS1_EENS_9allocatorINS_4pairIKS1_S3_EEEEE4sizeB7v160006Ev, symObjAddr: 0x13F04, symBinAddr: 0x1000155EC, symSize: 0x24 }
  - { offsetInCU: 0x36AB0, offset: 0x36AB0, size: 0x8, addend: 0x0, symName: __ZN11PSParameter8getValueEv, symObjAddr: 0x13F28, symBinAddr: 0x100015610, symSize: 0x5C }
  - { offsetInCU: 0x36AD6, offset: 0x36AD6, size: 0x8, addend: 0x0, symName: __ZN11PSParameter11getValueLogEv, symObjAddr: 0x13F84, symBinAddr: 0x10001566C, symSize: 0x3C }
  - { offsetInCU: 0x36AFC, offset: 0x36AFC, size: 0x8, addend: 0x0, symName: __ZN11PSParameter14convertToAudioEffffff, symObjAddr: 0x13FC0, symBinAddr: 0x1000156A8, symSize: 0xD0 }
  - { offsetInCU: 0x36B84, offset: 0x36B84, size: 0x8, addend: 0x0, symName: __ZNKSt3__112__hash_tableINS_17__hash_value_typeI3PSKP8PSObjectEENS_22__unordered_map_hasherIS2_S5_NS_4hashIS2_EENS_8equal_toIS2_EELb1EEENS_21__unordered_map_equalIS2_S5_SA_S8_Lb1EEENS_9allocatorIS5_EEE4sizeB7v160006Ev, symObjAddr: 0x14090, symBinAddr: 0x100015778, symSize: 0x2C }
  - { offsetInCU: 0x36BAA, offset: 0x36BAA, size: 0x8, addend: 0x0, symName: __ZNKSt3__117__compressed_pairImNS_22__unordered_map_hasherI3PSKNS_17__hash_value_typeIS2_P8PSObjectEENS_4hashIS2_EENS_8equal_toIS2_EELb1EEEE5firstB7v160006Ev, symObjAddr: 0x140BC, symBinAddr: 0x1000157A4, symSize: 0x24 }
  - { offsetInCU: 0x36BD0, offset: 0x36BD0, size: 0x8, addend: 0x0, symName: __ZN12PSController13getDebounceMSEv, symObjAddr: 0x140E0, symBinAddr: 0x1000157C8, symSize: 0x28 }
  - { offsetInCU: 0x36BF6, offset: 0x36BF6, size: 0x8, addend: 0x0, symName: __ZN13StringBuilder10startArrayERKNSt3__112basic_stringIcNS0_11char_traitsIcEENS0_9allocatorIcEEEE, symObjAddr: 0x14108, symBinAddr: 0x1000157F0, symSize: 0xB8 }
  - { offsetInCU: 0x36C2A, offset: 0x36C2A, size: 0x8, addend: 0x0, symName: __ZN12PSController22serializeParamaterBankE15PSParameterMode, symObjAddr: 0x141C0, symBinAddr: 0x1000158A8, symSize: 0x42C }
  - { offsetInCU: 0x36CF3, offset: 0x36CF3, size: 0x8, addend: 0x0, symName: __ZN13StringBuilder8endArrayEv, symObjAddr: 0x145EC, symBinAddr: 0x100015CD4, symSize: 0x34 }
  - { offsetInCU: 0x36D19, offset: 0x36D19, size: 0x8, addend: 0x0, symName: __ZN11SimpleTimer11getDurationEv, symObjAddr: 0x14620, symBinAddr: 0x100015D08, symSize: 0x18 }
  - { offsetInCU: 0x36D3F, offset: 0x36D3F, size: 0x8, addend: 0x0, symName: __ZNSt3__112basic_stringIcNS_11char_traitsIcEENS_9allocatorIcEEEpLB7v160006EPKc, symObjAddr: 0x14638, symBinAddr: 0x100015D20, symSize: 0x2C }
  - { offsetInCU: 0x36D74, offset: 0x36D74, size: 0x8, addend: 0x0, symName: __ZN18PSObjectCollection7getItemI16PSCPotentiometerEEPT_RK3PSK, symObjAddr: 0x14664, symBinAddr: 0x100015D4C, symSize: 0x88 }
  - { offsetInCU: 0x36DBF, offset: 0x36DBF, size: 0x8, addend: 0x0, symName: __ZN18PSObjectCollection7addItemI16PSCPotentiometerEEPT_S3_, symObjAddr: 0x146EC, symBinAddr: 0x100015DD4, symSize: 0x70 }
  - { offsetInCU: 0x36E18, offset: 0x36E18, size: 0x8, addend: 0x0, symName: __ZN16PSCPotentiometerC1ERK3PSKRKNSt3__112basic_stringIcNS3_11char_traitsIcEENS3_9allocatorIcEEEE, symObjAddr: 0x1475C, symBinAddr: 0x100015E44, symSize: 0x3C }
  - { offsetInCU: 0x36E5E, offset: 0x36E5E, size: 0x8, addend: 0x0, symName: __ZN16PSCPotentiometerC2ERK3PSKRKNSt3__112basic_stringIcNS3_11char_traitsIcEENS3_9allocatorIcEEEE, symObjAddr: 0x14798, symBinAddr: 0x100015E80, symSize: 0x6C }
  - { offsetInCU: 0x36EA4, offset: 0x36EA4, size: 0x8, addend: 0x0, symName: __ZN16PSCPotentiometerD1Ev, symObjAddr: 0x14804, symBinAddr: 0x100015EEC, symSize: 0x2C }
  - { offsetInCU: 0x36ECE, offset: 0x36ECE, size: 0x8, addend: 0x0, symName: __ZN16PSCPotentiometerD0Ev, symObjAddr: 0x14830, symBinAddr: 0x100015F18, symSize: 0x30 }
  - { offsetInCU: 0x36EF8, offset: 0x36EF8, size: 0x8, addend: 0x0, symName: __ZN16PSCPotentiometer8typeNameEv, symObjAddr: 0x14860, symBinAddr: 0x100015F48, symSize: 0x18 }
  - { offsetInCU: 0x36F1E, offset: 0x36F1E, size: 0x8, addend: 0x0, symName: __ZN16PSCPotentiometerD2Ev, symObjAddr: 0x14878, symBinAddr: 0x100015F60, symSize: 0x2C }
  - { offsetInCU: 0x36F48, offset: 0x36F48, size: 0x8, addend: 0x0, symName: __ZNKSt3__16vectorI9JSONValueNS_9allocatorIS1_EEE5beginB7v160006Ev, symObjAddr: 0x148A4, symBinAddr: 0x100015F8C, symSize: 0x30 }
  - { offsetInCU: 0x36F70, offset: 0x36F70, size: 0x8, addend: 0x0, symName: __ZNKSt3__16vectorI9JSONValueNS_9allocatorIS1_EEE3endB7v160006Ev, symObjAddr: 0x148D4, symBinAddr: 0x100015FBC, symSize: 0x30 }
  - { offsetInCU: 0x36F98, offset: 0x36F98, size: 0x8, addend: 0x0, symName: __ZNKSt3__111__wrap_iterIPK9JSONValueEdeB7v160006Ev, symObjAddr: 0x14938, symBinAddr: 0x100016020, symSize: 0x18 }
  - { offsetInCU: 0x36FBE, offset: 0x36FBE, size: 0x8, addend: 0x0, symName: __ZN12PSController15assignParameterEP11PSParameterRK15PSParameterMode, symObjAddr: 0x14950, symBinAddr: 0x100016038, symSize: 0x1AC }
  - { offsetInCU: 0x3700E, offset: 0x3700E, size: 0x8, addend: 0x0, symName: __ZNSt3__111__wrap_iterIPK9JSONValueEppB7v160006Ev, symObjAddr: 0x14AFC, symBinAddr: 0x1000161E4, symSize: 0x20 }
  - { offsetInCU: 0x37034, offset: 0x37034, size: 0x8, addend: 0x0, symName: __ZNKSt3__16vectorI9JSONValueNS_9allocatorIS1_EEE11__make_iterB7v160006EPKS1_, symObjAddr: 0x14B1C, symBinAddr: 0x100016204, symSize: 0x34 }
  - { offsetInCU: 0x37069, offset: 0x37069, size: 0x8, addend: 0x0, symName: __ZNSt3__111__wrap_iterIPK9JSONValueEC1B7v160006EPKvS3_, symObjAddr: 0x14B50, symBinAddr: 0x100016238, symSize: 0x3C }
  - { offsetInCU: 0x370AF, offset: 0x370AF, size: 0x8, addend: 0x0, symName: __ZNSt3__111__wrap_iterIPK9JSONValueEC2B7v160006EPKvS3_, symObjAddr: 0x14B8C, symBinAddr: 0x100016274, symSize: 0x24 }
  - { offsetInCU: 0x370F5, offset: 0x370F5, size: 0x8, addend: 0x0, symName: __ZNKSt3__111__wrap_iterIPK9JSONValueE4baseB7v160006Ev, symObjAddr: 0x14BF8, symBinAddr: 0x1000162E0, symSize: 0x18 }
  - { offsetInCU: 0x3711B, offset: 0x3711B, size: 0x8, addend: 0x0, symName: __ZN9JSONValueD2Ev, symObjAddr: 0x14C10, symBinAddr: 0x1000162F8, symSize: 0x48 }
  - { offsetInCU: 0x37147, offset: 0x37147, size: 0x8, addend: 0x0, symName: __ZN18PSObjectCollection7getItemI12PSControllerEEPT_RK3PSK, symObjAddr: 0x14C58, symBinAddr: 0x100016340, symSize: 0x88 }
  - { offsetInCU: 0x37192, offset: 0x37192, size: 0x8, addend: 0x0, symName: __ZN8PSConfigD2Ev, symObjAddr: 0x14CE0, symBinAddr: 0x1000163C8, symSize: 0x2C }
  - { offsetInCU: 0x371BE, offset: 0x371BE, size: 0x8, addend: 0x0, symName: __ZN13StringBuilderC2Ev, symObjAddr: 0x14D0C, symBinAddr: 0x1000163F4, symSize: 0x2C }
  - { offsetInCU: 0x371EA, offset: 0x371EA, size: 0x8, addend: 0x0, symName: __ZNSt3__112basic_stringIcNS_11char_traitsIcEENS_9allocatorIcEEE13shrink_to_fitB7v160006Ev, symObjAddr: 0x14D38, symBinAddr: 0x100016420, symSize: 0x70 }
  - { offsetInCU: 0x37221, offset: 0x37221, size: 0x8, addend: 0x0, symName: __ZNSt3__112basic_stringIcNS_11char_traitsIcEENS_9allocatorIcEEE11__recommendB7v160006Em, symObjAddr: 0x14DA8, symBinAddr: 0x100016490, symSize: 0x84 }
  - { offsetInCU: 0x37254, offset: 0x37254, size: 0x8, addend: 0x0, symName: __ZNKSt3__112basic_stringIcNS_11char_traitsIcEENS_9allocatorIcEEE8capacityB7v160006Ev, symObjAddr: 0x14E2C, symBinAddr: 0x100016514, symSize: 0x54 }
  - { offsetInCU: 0x3727A, offset: 0x3727A, size: 0x8, addend: 0x0, symName: __ZNSt3__112basic_stringIcNS_11char_traitsIcEENS_9allocatorIcEEE18__shrink_or_extendB7v160006Em, symObjAddr: 0x14E80, symBinAddr: 0x100016568, symSize: 0x224 }
  - { offsetInCU: 0x37346, offset: 0x37346, size: 0x8, addend: 0x0, symName: __ZNSt3__112basic_stringIcNS_11char_traitsIcEENS_9allocatorIcEEE10__align_itB7v160006ILm16EEEmm, symObjAddr: 0x150A4, symBinAddr: 0x10001678C, symSize: 0x1C }
  - { offsetInCU: 0x37374, offset: 0x37374, size: 0x8, addend: 0x0, symName: __ZNSt3__112basic_stringIcNS_11char_traitsIcEENS_9allocatorIcEEE13__fits_in_ssoB7v160006Em, symObjAddr: 0x150C0, symBinAddr: 0x1000167A8, symSize: 0x20 }
  - { offsetInCU: 0x37398, offset: 0x37398, size: 0x8, addend: 0x0, symName: __ZNSt3__112basic_stringIcNS_11char_traitsIcEENS_9allocatorIcEEE16__begin_lifetimeB7v160006EPcm, symObjAddr: 0x15120, symBinAddr: 0x100016808, symSize: 0x14 }
  - { offsetInCU: 0x373CB, offset: 0x373CB, size: 0x8, addend: 0x0, symName: __ZNSt3__111char_traitsIcE4copyEPcPKcm, symObjAddr: 0x15134, symBinAddr: 0x10001681C, symSize: 0x5C }
  - { offsetInCU: 0x3740A, offset: 0x3740A, size: 0x8, addend: 0x0, symName: __ZNSt3__112basic_stringIcNS_11char_traitsIcEENS_9allocatorIcEEE14__set_long_capB7v160006Em, symObjAddr: 0x15190, symBinAddr: 0x100016878, symSize: 0x70 }
  - { offsetInCU: 0x3743F, offset: 0x3743F, size: 0x8, addend: 0x0, symName: __ZNSt3__112basic_stringIcNS_11char_traitsIcEENS_9allocatorIcEEE15__set_long_sizeB7v160006Em, symObjAddr: 0x15200, symBinAddr: 0x1000168E8, symSize: 0x38 }
  - { offsetInCU: 0x37474, offset: 0x37474, size: 0x8, addend: 0x0, symName: __ZNSt3__112basic_stringIcNS_11char_traitsIcEENS_9allocatorIcEEE18__set_long_pointerB7v160006EPc, symObjAddr: 0x15238, symBinAddr: 0x100016920, symSize: 0x38 }
  - { offsetInCU: 0x374A9, offset: 0x374A9, size: 0x8, addend: 0x0, symName: __ZNSt3__19allocatorIcE8allocateB7v160006Em, symObjAddr: 0x15280, symBinAddr: 0x100016968, symSize: 0x58 }
  - { offsetInCU: 0x374E8, offset: 0x374E8, size: 0x8, addend: 0x0, symName: __ZNSt3__116allocator_traitsINS_9allocatorIcEEE8max_sizeB7v160006IS2_vEEmRKS2_, symObjAddr: 0x152D8, symBinAddr: 0x1000169C0, symSize: 0x24 }
  - { offsetInCU: 0x37516, offset: 0x37516, size: 0x8, addend: 0x0, symName: __ZNKSt3__19allocatorIcE8max_sizeB7v160006Ev, symObjAddr: 0x152FC, symBinAddr: 0x1000169E4, symSize: 0x14 }
  - { offsetInCU: 0x37562, offset: 0x37562, size: 0x8, addend: 0x0, symName: __ZNKSt3__114__copy_trivialclB7v160006IKccLi0EEENS_4pairIPT_PT0_EES5_S5_S7_, symObjAddr: 0x15530, symBinAddr: 0x100016C18, symSize: 0x48 }
  - { offsetInCU: 0x375EC, offset: 0x375EC, size: 0x8, addend: 0x0, symName: __ZNSt3__14pairIPKcS2_EC1B7v160006IS2_S2_LPv0EEEOT_OT0_, symObjAddr: 0x15698, symBinAddr: 0x100016D80, symSize: 0x3C }
  - { offsetInCU: 0x3764A, offset: 0x3764A, size: 0x8, addend: 0x0, symName: __ZNSt3__14pairIPKcS2_EC2B7v160006IS2_S2_LPv0EEEOT_OT0_, symObjAddr: 0x156D4, symBinAddr: 0x100016DBC, symSize: 0x34 }
  - { offsetInCU: 0x376A8, offset: 0x376A8, size: 0x8, addend: 0x0, symName: __ZNSt3__118__unwrap_iter_implIPKcLb1EE8__unwrapB7v160006ES2_, symObjAddr: 0x15708, symBinAddr: 0x100016DF0, symSize: 0x24 }
  - { offsetInCU: 0x376D7, offset: 0x376D7, size: 0x8, addend: 0x0, symName: __ZNSt3__14pairIPKcPcEC1B7v160006IRS2_S3_LPv0EEEOT_OT0_, symObjAddr: 0x157E0, symBinAddr: 0x100016EC8, symSize: 0x3C }
  - { offsetInCU: 0x37735, offset: 0x37735, size: 0x8, addend: 0x0, symName: __ZNSt3__14pairIPKcPcEC2B7v160006IRS2_S3_LPv0EEEOT_OT0_, symObjAddr: 0x1581C, symBinAddr: 0x100016F04, symSize: 0x34 }
  - { offsetInCU: 0x37793, offset: 0x37793, size: 0x8, addend: 0x0, symName: __ZNSt3__118__unwrap_iter_implIPcLb1EE8__unwrapB7v160006ES1_, symObjAddr: 0x15850, symBinAddr: 0x100016F38, symSize: 0x24 }
  - { offsetInCU: 0x377B6, offset: 0x377B6, size: 0x8, addend: 0x0, symName: __ZNSt3__14pairIPKcPcEC1B7v160006IS2_S3_LPv0EEEOT_OT0_, symObjAddr: 0x15874, symBinAddr: 0x100016F5C, symSize: 0x3C }
  - { offsetInCU: 0x37814, offset: 0x37814, size: 0x8, addend: 0x0, symName: __ZNSt3__14pairIPKcPcEC2B7v160006IS2_S3_LPv0EEEOT_OT0_, symObjAddr: 0x158B0, symBinAddr: 0x100016F98, symSize: 0x34 }
  - { offsetInCU: 0x37872, offset: 0x37872, size: 0x8, addend: 0x0, symName: __ZNSt3__118__unwrap_iter_implIPKcLb1EE8__rewrapB7v160006ES2_S2_, symObjAddr: 0x15920, symBinAddr: 0x100017008, symSize: 0x48 }
  - { offsetInCU: 0x378A3, offset: 0x378A3, size: 0x8, addend: 0x0, symName: __ZNSt3__118__unwrap_iter_implIPcLb1EE8__rewrapB7v160006ES1_S1_, symObjAddr: 0x15968, symBinAddr: 0x100017050, symSize: 0x48 }
  - { offsetInCU: 0x378D4, offset: 0x378D4, size: 0x8, addend: 0x0, symName: __ZN13StringBuilderD2Ev, symObjAddr: 0x159B0, symBinAddr: 0x100017098, symSize: 0x2C }
  - { offsetInCU: 0x37900, offset: 0x37900, size: 0x8, addend: 0x0, symName: __ZN21PSMEnvelopeParametersC2E3PSKS0_S0_S0_S0_S0_, symObjAddr: 0x159DC, symBinAddr: 0x1000170C4, symSize: 0x5C }
  - { offsetInCU: 0x3797E, offset: 0x3797E, size: 0x8, addend: 0x0, symName: __ZN11PSMEnvelopeC2ERK3PSKNSt3__112basic_stringIcNS3_11char_traitsIcEENS3_9allocatorIcEEEERK21PSMEnvelopeParameters, symObjAddr: 0x15A38, symBinAddr: 0x100017120, symSize: 0xE4 }
  - { offsetInCU: 0x379D3, offset: 0x379D3, size: 0x8, addend: 0x0, symName: __ZN8PSModuleC2ERK3PSKNSt3__112basic_stringIcNS3_11char_traitsIcEENS3_9allocatorIcEEEE, symObjAddr: 0x15B1C, symBinAddr: 0x100017204, symSize: 0x84 }
  - { offsetInCU: 0x37A1A, offset: 0x37A1A, size: 0x8, addend: 0x0, symName: __ZN11PSMEnvelope16attachParametersERK21PSMEnvelopeParameters, symObjAddr: 0x15BA0, symBinAddr: 0x100017288, symSize: 0x11C }
  - { offsetInCU: 0x37A4E, offset: 0x37A4E, size: 0x8, addend: 0x0, symName: __ZN8PSModuleD2Ev, symObjAddr: 0x15CBC, symBinAddr: 0x1000173A4, symSize: 0x38 }
  - { offsetInCU: 0x37A78, offset: 0x37A78, size: 0x8, addend: 0x0, symName: __ZN11PSMEnvelopeD1Ev, symObjAddr: 0x15CF4, symBinAddr: 0x1000173DC, symSize: 0x2C }
  - { offsetInCU: 0x37AA2, offset: 0x37AA2, size: 0x8, addend: 0x0, symName: __ZN11PSMEnvelopeD0Ev, symObjAddr: 0x15D20, symBinAddr: 0x100017408, symSize: 0x30 }
  - { offsetInCU: 0x37ACC, offset: 0x37ACC, size: 0x8, addend: 0x0, symName: __ZThn40_N11PSMEnvelopeD1Ev, symObjAddr: 0x15D50, symBinAddr: 0x100017438, symSize: 0x1C }
  - { offsetInCU: 0x37AE2, offset: 0x37AE2, size: 0x8, addend: 0x0, symName: __ZThn40_N11PSMEnvelopeD0Ev, symObjAddr: 0x15D6C, symBinAddr: 0x100017454, symSize: 0x18 }
  - { offsetInCU: 0x37AF8, offset: 0x37AF8, size: 0x8, addend: 0x0, symName: __ZN8PSModuleD1Ev, symObjAddr: 0x15D84, symBinAddr: 0x10001746C, symSize: 0x2C }
  - { offsetInCU: 0x37B22, offset: 0x37B22, size: 0x8, addend: 0x0, symName: __ZN8PSModuleD0Ev, symObjAddr: 0x15DB0, symBinAddr: 0x100017498, symSize: 0x30 }
  - { offsetInCU: 0x37B4C, offset: 0x37B4C, size: 0x8, addend: 0x0, symName: __ZThn40_N8PSModuleD1Ev, symObjAddr: 0x15DE0, symBinAddr: 0x1000174C8, symSize: 0x1C }
  - { offsetInCU: 0x37B62, offset: 0x37B62, size: 0x8, addend: 0x0, symName: __ZThn40_N8PSModuleD0Ev, symObjAddr: 0x15DFC, symBinAddr: 0x1000174E4, symSize: 0x18 }
  - { offsetInCU: 0x37B78, offset: 0x37B78, size: 0x8, addend: 0x0, symName: __ZN8PSModule12addParameterEP11PSParameter, symObjAddr: 0x15E14, symBinAddr: 0x1000174FC, symSize: 0x34 }
  - { offsetInCU: 0x37BAC, offset: 0x37BAC, size: 0x8, addend: 0x0, symName: __ZN11PSMEnvelopeD2Ev, symObjAddr: 0x15E48, symBinAddr: 0x100017530, symSize: 0x50 }
  - { offsetInCU: 0x37BD6, offset: 0x37BD6, size: 0x8, addend: 0x0, symName: __ZN14PSSceneManager6renderEv, symObjAddr: 0x15E98, symBinAddr: 0x100017580, symSize: 0x48 }
  - { offsetInCU: 0x37BFC, offset: 0x37BFC, size: 0x8, addend: 0x0, symName: __ZN7PSScene6renderEv, symObjAddr: 0x15EE0, symBinAddr: 0x1000175C8, symSize: 0x44 }
  - { offsetInCU: 0x37C22, offset: 0x37C22, size: 0x8, addend: 0x0, symName: __ZN7PSScene12shouldRenderEv, symObjAddr: 0x15F24, symBinAddr: 0x10001760C, symSize: 0x54 }
  - { offsetInCU: 0x37C48, offset: 0x37C48, size: 0x8, addend: 0x0, symName: __ZNSt3__16chrono8durationIxNS_5ratioILl1ELl1000EEEE4zeroB7v160006Ev, symObjAddr: 0x15FA8, symBinAddr: 0x100017690, symSize: 0x3C }
  - { offsetInCU: 0x37C5C, offset: 0x37C5C, size: 0x8, addend: 0x0, symName: __ZNSt3__16chrono8durationIxNS_5ratioILl1ELl1000000000EEEEppB7v160006Ev, symObjAddr: 0x1607C, symBinAddr: 0x100017764, symSize: 0x20 }
  - { offsetInCU: 0x37C82, offset: 0x37C82, size: 0x8, addend: 0x0, symName: __ZNSt3__16chrono8durationIxNS_5ratioILl1ELl1000000000EEEE3maxB7v160006Ev, symObjAddr: 0x1609C, symBinAddr: 0x100017784, symSize: 0x3C }
  - { offsetInCU: 0x37CA0, offset: 0x37CA0, size: 0x8, addend: 0x0, symName: __ZNKSt3__16chrono13__duration_ltINS0_8durationIxNS_5ratioILl1ELl1000EEEEES5_EclB7v160006ERKS5_S8_, symObjAddr: 0x1610C, symBinAddr: 0x1000177F4, symSize: 0x4C }
  - { offsetInCU: 0x37CE4, offset: 0x37CE4, size: 0x8, addend: 0x0, symName: __ZNSt3__16chrono15duration_valuesIxE4zeroB7v160006Ev, symObjAddr: 0x16158, symBinAddr: 0x100017840, symSize: 0x8 }
  - { offsetInCU: 0x37CF8, offset: 0x37CF8, size: 0x8, addend: 0x0, symName: __ZNSt3__16chrono8durationIeNS_5ratioILl1ELl1000EEEEC1B7v160006IxS3_EERKNS1_IT_T0_EEPNS_9enable_ifIXaasr13__no_overflowIS7_S3_EE5valueooL_ZNS_17integral_constantIbLb1EE5valueEEaaeqsr13__no_overflowIS7_S3_E4typeE3denLi1Entsr23treat_as_floating_pointIS6_EE5valueEvE4typeE, symObjAddr: 0x161D8, symBinAddr: 0x1000178C0, symSize: 0x3C }
  - { offsetInCU: 0x37D4F, offset: 0x37D4F, size: 0x8, addend: 0x0, symName: __ZNKSt3__16chrono8durationIeNS_5ratioILl1ELl1000EEEE5countB7v160006Ev, symObjAddr: 0x16214, symBinAddr: 0x1000178FC, symSize: 0x18 }
  - { offsetInCU: 0x37D75, offset: 0x37D75, size: 0x8, addend: 0x0, symName: __ZNSt3__16chrono8durationIeNS_5ratioILl1ELl1000EEEEC1B7v160006IeNS2_ILl1ELl1EEEEERKNS1_IT_T0_EEPNS_9enable_ifIXaasr13__no_overflowIS8_S3_EE5valueooL_ZNS_17integral_constantIbLb1EE5valueEEaaeqsr13__no_overflowIS8_S3_E4typeE3denLi1Entsr23treat_as_floating_pointIS7_EE5valueEvE4typeE, symObjAddr: 0x1622C, symBinAddr: 0x100017914, symSize: 0x3C }
  - { offsetInCU: 0x37DCC, offset: 0x37DCC, size: 0x8, addend: 0x0, symName: __ZNSt3__16chrono8durationIeNS_5ratioILl1ELl1000EEEEC2B7v160006IxS3_EERKNS1_IT_T0_EEPNS_9enable_ifIXaasr13__no_overflowIS7_S3_EE5valueooL_ZNS_17integral_constantIbLb1EE5valueEEaaeqsr13__no_overflowIS7_S3_E4typeE3denLi1Entsr23treat_as_floating_pointIS6_EE5valueEvE4typeE, symObjAddr: 0x16268, symBinAddr: 0x100017950, symSize: 0x48 }
  - { offsetInCU: 0x37E2D, offset: 0x37E2D, size: 0x8, addend: 0x0, symName: __ZNKSt3__16chrono15__duration_castINS0_8durationIxNS_5ratioILl1ELl1000EEEEENS2_IeS4_EENS3_ILl1ELl1EEELb1ELb1EEclB7v160006ERKS5_, symObjAddr: 0x162E0, symBinAddr: 0x1000179C8, symSize: 0x44 }
  - { offsetInCU: 0x37E6C, offset: 0x37E6C, size: 0x8, addend: 0x0, symName: __ZNSt3__16chrono8durationIeNS_5ratioILl1ELl1000EEEEC1B7v160006IeEERKT_PNS_9enable_ifIXaasr14is_convertibleIS8_eEE5valueooL_ZNS_17integral_constantIbLb1EE5valueEEntsr23treat_as_floating_pointIS6_EE5valueEvE4typeE, symObjAddr: 0x16324, symBinAddr: 0x100017A0C, symSize: 0x3C }
  - { offsetInCU: 0x37EB9, offset: 0x37EB9, size: 0x8, addend: 0x0, symName: __ZNSt3__16chrono8durationIeNS_5ratioILl1ELl1000EEEEC2B7v160006IeEERKT_PNS_9enable_ifIXaasr14is_convertibleIS8_eEE5valueooL_ZNS_17integral_constantIbLb1EE5valueEEntsr23treat_as_floating_pointIS6_EE5valueEvE4typeE, symObjAddr: 0x16360, symBinAddr: 0x100017A48, symSize: 0x28 }
  - { offsetInCU: 0x37F06, offset: 0x37F06, size: 0x8, addend: 0x0, symName: __ZNSt3__16chrono8durationIeNS_5ratioILl1ELl1000EEEEC2B7v160006IeNS2_ILl1ELl1EEEEERKNS1_IT_T0_EEPNS_9enable_ifIXaasr13__no_overflowIS8_S3_EE5valueooL_ZNS_17integral_constantIbLb1EE5valueEEaaeqsr13__no_overflowIS8_S3_E4typeE3denLi1Entsr23treat_as_floating_pointIS7_EE5valueEvE4typeE, symObjAddr: 0x16388, symBinAddr: 0x100017A70, symSize: 0x48 }
  - { offsetInCU: 0x37F5D, offset: 0x37F5D, size: 0x8, addend: 0x0, symName: __ZNKSt3__16chrono8durationIeNS_5ratioILl1ELl1EEEE5countB7v160006Ev, symObjAddr: 0x1644C, symBinAddr: 0x100017B34, symSize: 0x18 }
  - { offsetInCU: 0x37F83, offset: 0x37F83, size: 0x8, addend: 0x0, symName: __ZNSt3__16chrono8durationIxNS_5ratioILl1ELl1000000000EEEEC1B7v160006IxEERKT_PNS_9enable_ifIXaasr14is_convertibleIS8_xEE5valueooL_ZNS_17integral_constantIbLb0EE5valueEEntsr23treat_as_floating_pointIS6_EE5valueEvE4typeE, symObjAddr: 0x164B0, symBinAddr: 0x100017B98, symSize: 0x3C }
  - { offsetInCU: 0x37FD0, offset: 0x37FD0, size: 0x8, addend: 0x0, symName: __ZNSt3__16chrono8durationIxNS_5ratioILl1ELl1000000000EEEEC2B7v160006IxEERKT_PNS_9enable_ifIXaasr14is_convertibleIS8_xEE5valueooL_ZNS_17integral_constantIbLb0EE5valueEEntsr23treat_as_floating_pointIS6_EE5valueEvE4typeE, symObjAddr: 0x164EC, symBinAddr: 0x100017BD4, symSize: 0x28 }
  - { offsetInCU: 0x3801D, offset: 0x3801D, size: 0x8, addend: 0x0, symName: __ZNKSt3__16chrono8durationIxNS_5ratioILl1ELl1000000000EEEE5countB7v160006Ev, symObjAddr: 0x16580, symBinAddr: 0x100017C68, symSize: 0x18 }
  - { offsetInCU: 0x38043, offset: 0x38043, size: 0x8, addend: 0x0, symName: __ZNSt3__16chrono8durationIxNS_5ratioILl1ELl1000000000EEEEC1B7v160006IxNS2_ILl1ELl1000EEEEERKNS1_IT_T0_EEPNS_9enable_ifIXaasr13__no_overflowIS8_S3_EE5valueooL_ZNS_17integral_constantIbLb0EE5valueEEaaeqsr13__no_overflowIS8_S3_E4typeE3denLi1Entsr23treat_as_floating_pointIS7_EE5valueEvE4typeE, symObjAddr: 0x16598, symBinAddr: 0x100017C80, symSize: 0x3C }
  - { offsetInCU: 0x3809A, offset: 0x3809A, size: 0x8, addend: 0x0, symName: __ZNSt3__16chrono8durationIxNS_5ratioILl1ELl1000000000EEEEC2B7v160006IxNS2_ILl1ELl1000EEEEERKNS1_IT_T0_EEPNS_9enable_ifIXaasr13__no_overflowIS8_S3_EE5valueooL_ZNS_17integral_constantIbLb0EE5valueEEaaeqsr13__no_overflowIS8_S3_E4typeE3denLi1Entsr23treat_as_floating_pointIS7_EE5valueEvE4typeE, symObjAddr: 0x165D4, symBinAddr: 0x100017CBC, symSize: 0x50 }
  - { offsetInCU: 0x380F1, offset: 0x380F1, size: 0x8, addend: 0x0, symName: __ZNSt3__16chrono15duration_valuesIxE3maxB7v160006Ev, symObjAddr: 0x16624, symBinAddr: 0x100017D0C, symSize: 0x14 }
  - { offsetInCU: 0x38105, offset: 0x38105, size: 0x8, addend: 0x0, symName: __ZNSt3__114numeric_limitsIxE3maxB7v160006Ev, symObjAddr: 0x16638, symBinAddr: 0x100017D20, symSize: 0x14 }
  - { offsetInCU: 0x38119, offset: 0x38119, size: 0x8, addend: 0x0, symName: __ZNSt3__123__libcpp_numeric_limitsIxLb1EE3maxB7v160006Ev, symObjAddr: 0x1664C, symBinAddr: 0x100017D34, symSize: 0x8 }
  - { offsetInCU: 0x3812D, offset: 0x3812D, size: 0x8, addend: 0x0, symName: __ZNSt3__112basic_stringIcNS_11char_traitsIcEENS_9allocatorIcEEEC2B7v160006IDnEEPKc, symObjAddr: 0x16654, symBinAddr: 0x100017D3C, symSize: 0x60 }
  - { offsetInCU: 0x3816B, offset: 0x3816B, size: 0x8, addend: 0x0, symName: __ZNSt3__113unordered_mapI3PSKNS_12basic_stringIcNS_11char_traitsIcEENS_9allocatorIcEEEENS_4hashIS1_EENS_8equal_toIS1_EENS5_INS_4pairIKS1_S7_EEEEEC2ESt16initializer_listISE_E, symObjAddr: 0x166B4, symBinAddr: 0x100017D9C, symSize: 0x94 }
  - { offsetInCU: 0x381A6, offset: 0x381A6, size: 0x8, addend: 0x0, symName: __ZNSt3__112__hash_tableINS_17__hash_value_typeI3PSKNS_12basic_stringIcNS_11char_traitsIcEENS_9allocatorIcEEEEEENS_22__unordered_map_hasherIS2_S9_NS_4hashIS2_EENS_8equal_toIS2_EELb1EEENS_21__unordered_map_equalIS2_S9_SE_SC_Lb1EEENS6_IS9_EEEC1Ev, symObjAddr: 0x16748, symBinAddr: 0x100017E30, symSize: 0x2C }
  - { offsetInCU: 0x381D2, offset: 0x381D2, size: 0x8, addend: 0x0, symName: __ZNSt3__113unordered_mapI3PSKNS_12basic_stringIcNS_11char_traitsIcEENS_9allocatorIcEEEENS_4hashIS1_EENS_8equal_toIS1_EENS5_INS_4pairIKS1_S7_EEEEE6insertIPKSE_EEvT_SK_, symObjAddr: 0x16784, symBinAddr: 0x100017E6C, symSize: 0x70 }
  - { offsetInCU: 0x38221, offset: 0x38221, size: 0x8, addend: 0x0, symName: __ZNKSt16initializer_listINSt3__14pairIK3PSKNS0_12basic_stringIcNS0_11char_traitsIcEENS0_9allocatorIcEEEEEEE5beginB7v160006Ev, symObjAddr: 0x167F4, symBinAddr: 0x100017EDC, symSize: 0x18 }
  - { offsetInCU: 0x38247, offset: 0x38247, size: 0x8, addend: 0x0, symName: __ZNKSt16initializer_listINSt3__14pairIK3PSKNS0_12basic_stringIcNS0_11char_traitsIcEENS0_9allocatorIcEEEEEEE3endB7v160006Ev, symObjAddr: 0x1680C, symBinAddr: 0x100017EF4, symSize: 0x20 }
  - { offsetInCU: 0x3826D, offset: 0x3826D, size: 0x8, addend: 0x0, symName: __ZNSt3__112__hash_tableINS_17__hash_value_typeI3PSKNS_12basic_stringIcNS_11char_traitsIcEENS_9allocatorIcEEEEEENS_22__unordered_map_hasherIS2_S9_NS_4hashIS2_EENS_8equal_toIS2_EELb1EEENS_21__unordered_map_equalIS2_S9_SE_SC_Lb1EEENS6_IS9_EEED1Ev, symObjAddr: 0x1682C, symBinAddr: 0x100017F14, symSize: 0x2C }
  - { offsetInCU: 0x38299, offset: 0x38299, size: 0x8, addend: 0x0, symName: __ZNSt3__112__hash_tableINS_17__hash_value_typeI3PSKNS_12basic_stringIcNS_11char_traitsIcEENS_9allocatorIcEEEEEENS_22__unordered_map_hasherIS2_S9_NS_4hashIS2_EENS_8equal_toIS2_EELb1EEENS_21__unordered_map_equalIS2_S9_SE_SC_Lb1EEENS6_IS9_EEEC2Ev, symObjAddr: 0x16858, symBinAddr: 0x100017F40, symSize: 0x7C }
  - { offsetInCU: 0x382C5, offset: 0x382C5, size: 0x8, addend: 0x0, symName: __ZNSt3__110unique_ptrIA_PNS_16__hash_node_baseIPNS_11__hash_nodeINS_17__hash_value_typeI3PSKNS_12basic_stringIcNS_11char_traitsIcEENS_9allocatorIcEEEEEEPvEEEENS_25__bucket_list_deallocatorINS8_ISG_EEEEEC1B7v160006ILb1EvEEv, symObjAddr: 0x168D4, symBinAddr: 0x100017FBC, symSize: 0x2C }
  - { offsetInCU: 0x382FA, offset: 0x382FA, size: 0x8, addend: 0x0, symName: __ZNSt3__117__compressed_pairINS_16__hash_node_baseIPNS_11__hash_nodeINS_17__hash_value_typeI3PSKNS_12basic_stringIcNS_11char_traitsIcEENS_9allocatorIcEEEEEEPvEEEENS8_ISD_EEEC1B7v160006ILb1EvEEv, symObjAddr: 0x16900, symBinAddr: 0x100017FE8, symSize: 0x2C }
  - { offsetInCU: 0x3832F, offset: 0x3832F, size: 0x8, addend: 0x0, symName: __ZNSt3__117__compressed_pairImNS_22__unordered_map_hasherI3PSKNS_17__hash_value_typeIS2_NS_12basic_stringIcNS_11char_traitsIcEENS_9allocatorIcEEEEEENS_4hashIS2_EENS_8equal_toIS2_EELb1EEEEC1B7v160006IiNS_18__default_init_tagEEEOT_OT0_, symObjAddr: 0x1692C, symBinAddr: 0x100018014, symSize: 0x3C }
  - { offsetInCU: 0x38387, offset: 0x38387, size: 0x8, addend: 0x0, symName: __ZNSt3__117__compressed_pairIfNS_21__unordered_map_equalI3PSKNS_17__hash_value_typeIS2_NS_12basic_stringIcNS_11char_traitsIcEENS_9allocatorIcEEEEEENS_8equal_toIS2_EENS_4hashIS2_EELb1EEEEC1B7v160006IfNS_18__default_init_tagEEEOT_OT0_, symObjAddr: 0x16968, symBinAddr: 0x100018050, symSize: 0x3C }
  - { offsetInCU: 0x383DF, offset: 0x383DF, size: 0x8, addend: 0x0, symName: __ZNSt3__110unique_ptrIA_PNS_16__hash_node_baseIPNS_11__hash_nodeINS_17__hash_value_typeI3PSKNS_12basic_stringIcNS_11char_traitsIcEENS_9allocatorIcEEEEEEPvEEEENS_25__bucket_list_deallocatorINS8_ISG_EEEEEC2B7v160006ILb1EvEEv, symObjAddr: 0x169A4, symBinAddr: 0x10001808C, symSize: 0x3C }
  - { offsetInCU: 0x38414, offset: 0x38414, size: 0x8, addend: 0x0, symName: __ZNSt3__117__compressed_pairIPPNS_16__hash_node_baseIPNS_11__hash_nodeINS_17__hash_value_typeI3PSKNS_12basic_stringIcNS_11char_traitsIcEENS_9allocatorIcEEEEEEPvEEEENS_25__bucket_list_deallocatorINS8_ISG_EEEEEC1B7v160006INS_16__value_init_tagESN_EEOT_OT0_, symObjAddr: 0x169E0, symBinAddr: 0x1000180C8, symSize: 0x3C }
  - { offsetInCU: 0x3846C, offset: 0x3846C, size: 0x8, addend: 0x0, symName: __ZNSt3__117__compressed_pairIPPNS_16__hash_node_baseIPNS_11__hash_nodeINS_17__hash_value_typeI3PSKNS_12basic_stringIcNS_11char_traitsIcEENS_9allocatorIcEEEEEEPvEEEENS_25__bucket_list_deallocatorINS8_ISG_EEEEEC2B7v160006INS_16__value_init_tagESN_EEOT_OT0_, symObjAddr: 0x16A1C, symBinAddr: 0x100018104, symSize: 0x40 }
  - { offsetInCU: 0x384C4, offset: 0x384C4, size: 0x8, addend: 0x0, symName: __ZNSt3__122__compressed_pair_elemIPPNS_16__hash_node_baseIPNS_11__hash_nodeINS_17__hash_value_typeI3PSKNS_12basic_stringIcNS_11char_traitsIcEENS_9allocatorIcEEEEEEPvEEEELi0ELb0EEC2B7v160006ENS_16__value_init_tagE, symObjAddr: 0x16A5C, symBinAddr: 0x100018144, symSize: 0x18 }
  - { offsetInCU: 0x384F9, offset: 0x384F9, size: 0x8, addend: 0x0, symName: __ZNSt3__122__compressed_pair_elemINS_25__bucket_list_deallocatorINS_9allocatorIPNS_16__hash_node_baseIPNS_11__hash_nodeINS_17__hash_value_typeI3PSKNS_12basic_stringIcNS_11char_traitsIcEENS2_IcEEEEEEPvEEEEEEEELi1ELb0EEC2B7v160006ENS_16__value_init_tagE, symObjAddr: 0x16A74, symBinAddr: 0x10001815C, symSize: 0x2C }
  - { offsetInCU: 0x3852E, offset: 0x3852E, size: 0x8, addend: 0x0, symName: __ZNSt3__125__bucket_list_deallocatorINS_9allocatorIPNS_16__hash_node_baseIPNS_11__hash_nodeINS_17__hash_value_typeI3PSKNS_12basic_stringIcNS_11char_traitsIcEENS1_IcEEEEEEPvEEEEEEEC1B7v160006Ev, symObjAddr: 0x16AA0, symBinAddr: 0x100018188, symSize: 0x2C }
  - { offsetInCU: 0x38558, offset: 0x38558, size: 0x8, addend: 0x0, symName: __ZNSt3__125__bucket_list_deallocatorINS_9allocatorIPNS_16__hash_node_baseIPNS_11__hash_nodeINS_17__hash_value_typeI3PSKNS_12basic_stringIcNS_11char_traitsIcEENS1_IcEEEEEEPvEEEEEEEC2B7v160006Ev, symObjAddr: 0x16ACC, symBinAddr: 0x1000181B4, symSize: 0x40 }
  - { offsetInCU: 0x38582, offset: 0x38582, size: 0x8, addend: 0x0, symName: __ZNSt3__117__compressed_pairImNS_9allocatorIPNS_16__hash_node_baseIPNS_11__hash_nodeINS_17__hash_value_typeI3PSKNS_12basic_stringIcNS_11char_traitsIcEENS1_IcEEEEEEPvEEEEEEEC1B7v160006IiNS_18__default_init_tagEEEOT_OT0_, symObjAddr: 0x16B0C, symBinAddr: 0x1000181F4, symSize: 0x3C }
  - { offsetInCU: 0x385DA, offset: 0x385DA, size: 0x8, addend: 0x0, symName: __ZNSt3__117__compressed_pairImNS_9allocatorIPNS_16__hash_node_baseIPNS_11__hash_nodeINS_17__hash_value_typeI3PSKNS_12basic_stringIcNS_11char_traitsIcEENS1_IcEEEEEEPvEEEEEEEC2B7v160006IiNS_18__default_init_tagEEEOT_OT0_, symObjAddr: 0x16B48, symBinAddr: 0x100018230, symSize: 0x40 }
  - { offsetInCU: 0x38632, offset: 0x38632, size: 0x8, addend: 0x0, symName: __ZNSt3__122__compressed_pair_elemINS_9allocatorIPNS_16__hash_node_baseIPNS_11__hash_nodeINS_17__hash_value_typeI3PSKNS_12basic_stringIcNS_11char_traitsIcEENS1_IcEEEEEEPvEEEEEELi1ELb1EEC2B7v160006ENS_18__default_init_tagE, symObjAddr: 0x16B88, symBinAddr: 0x100018270, symSize: 0x2C }
  - { offsetInCU: 0x38667, offset: 0x38667, size: 0x8, addend: 0x0, symName: __ZNSt3__19allocatorIPNS_16__hash_node_baseIPNS_11__hash_nodeINS_17__hash_value_typeI3PSKNS_12basic_stringIcNS_11char_traitsIcEENS0_IcEEEEEEPvEEEEEC2B7v160006Ev, symObjAddr: 0x16BB4, symBinAddr: 0x10001829C, symSize: 0x2C }
  - { offsetInCU: 0x38691, offset: 0x38691, size: 0x8, addend: 0x0, symName: __ZNSt3__116__non_trivial_ifILb1ENS_9allocatorIPNS_16__hash_node_baseIPNS_11__hash_nodeINS_17__hash_value_typeI3PSKNS_12basic_stringIcNS_11char_traitsIcEENS1_IcEEEEEEPvEEEEEEEC2B7v160006Ev, symObjAddr: 0x16BE0, symBinAddr: 0x1000182C8, symSize: 0x14 }
  - { offsetInCU: 0x386BB, offset: 0x386BB, size: 0x8, addend: 0x0, symName: __ZNSt3__117__compressed_pairINS_16__hash_node_baseIPNS_11__hash_nodeINS_17__hash_value_typeI3PSKNS_12basic_stringIcNS_11char_traitsIcEENS_9allocatorIcEEEEEEPvEEEENS8_ISD_EEEC2B7v160006ILb1EvEEv, symObjAddr: 0x16BF4, symBinAddr: 0x1000182DC, symSize: 0x34 }
  - { offsetInCU: 0x386F0, offset: 0x386F0, size: 0x8, addend: 0x0, symName: __ZNSt3__122__compressed_pair_elemINS_16__hash_node_baseIPNS_11__hash_nodeINS_17__hash_value_typeI3PSKNS_12basic_stringIcNS_11char_traitsIcEENS_9allocatorIcEEEEEEPvEEEELi0ELb0EEC2B7v160006ENS_16__value_init_tagE, symObjAddr: 0x16C28, symBinAddr: 0x100018310, symSize: 0x2C }
  - { offsetInCU: 0x38725, offset: 0x38725, size: 0x8, addend: 0x0, symName: __ZNSt3__122__compressed_pair_elemINS_9allocatorINS_11__hash_nodeINS_17__hash_value_typeI3PSKNS_12basic_stringIcNS_11char_traitsIcEENS1_IcEEEEEEPvEEEELi1ELb1EEC2B7v160006ENS_16__value_init_tagE, symObjAddr: 0x16C54, symBinAddr: 0x10001833C, symSize: 0x2C }
  - { offsetInCU: 0x3875A, offset: 0x3875A, size: 0x8, addend: 0x0, symName: __ZNSt3__116__hash_node_baseIPNS_11__hash_nodeINS_17__hash_value_typeI3PSKNS_12basic_stringIcNS_11char_traitsIcEENS_9allocatorIcEEEEEEPvEEEC1B7v160006Ev, symObjAddr: 0x16C80, symBinAddr: 0x100018368, symSize: 0x2C }
  - { offsetInCU: 0x38784, offset: 0x38784, size: 0x8, addend: 0x0, symName: __ZNSt3__116__hash_node_baseIPNS_11__hash_nodeINS_17__hash_value_typeI3PSKNS_12basic_stringIcNS_11char_traitsIcEENS_9allocatorIcEEEEEEPvEEEC2B7v160006Ev, symObjAddr: 0x16CAC, symBinAddr: 0x100018394, symSize: 0x18 }
  - { offsetInCU: 0x387AE, offset: 0x387AE, size: 0x8, addend: 0x0, symName: __ZNSt3__19allocatorINS_11__hash_nodeINS_17__hash_value_typeI3PSKNS_12basic_stringIcNS_11char_traitsIcEENS0_IcEEEEEEPvEEEC2B7v160006Ev, symObjAddr: 0x16CC4, symBinAddr: 0x1000183AC, symSize: 0x2C }
  - { offsetInCU: 0x387D8, offset: 0x387D8, size: 0x8, addend: 0x0, symName: __ZNSt3__116__non_trivial_ifILb1ENS_9allocatorINS_11__hash_nodeINS_17__hash_value_typeI3PSKNS_12basic_stringIcNS_11char_traitsIcEENS1_IcEEEEEEPvEEEEEC2B7v160006Ev, symObjAddr: 0x16CF0, symBinAddr: 0x1000183D8, symSize: 0x14 }
  - { offsetInCU: 0x38802, offset: 0x38802, size: 0x8, addend: 0x0, symName: __ZNSt3__117__compressed_pairImNS_22__unordered_map_hasherI3PSKNS_17__hash_value_typeIS2_NS_12basic_stringIcNS_11char_traitsIcEENS_9allocatorIcEEEEEENS_4hashIS2_EENS_8equal_toIS2_EELb1EEEEC2B7v160006IiNS_18__default_init_tagEEEOT_OT0_, symObjAddr: 0x16D04, symBinAddr: 0x1000183EC, symSize: 0x40 }
  - { offsetInCU: 0x3885A, offset: 0x3885A, size: 0x8, addend: 0x0, symName: __ZNSt3__122__compressed_pair_elemINS_22__unordered_map_hasherI3PSKNS_17__hash_value_typeIS2_NS_12basic_stringIcNS_11char_traitsIcEENS_9allocatorIcEEEEEENS_4hashIS2_EENS_8equal_toIS2_EELb1EEELi1ELb1EEC2B7v160006ENS_18__default_init_tagE, symObjAddr: 0x16D44, symBinAddr: 0x10001842C, symSize: 0x2C }
  - { offsetInCU: 0x3888F, offset: 0x3888F, size: 0x8, addend: 0x0, symName: __ZNSt3__122__unordered_map_hasherI3PSKNS_17__hash_value_typeIS1_NS_12basic_stringIcNS_11char_traitsIcEENS_9allocatorIcEEEEEENS_4hashIS1_EENS_8equal_toIS1_EELb1EEC2B7v160006Ev, symObjAddr: 0x16D70, symBinAddr: 0x100018458, symSize: 0x14 }
  - { offsetInCU: 0x388B9, offset: 0x388B9, size: 0x8, addend: 0x0, symName: __ZNSt3__117__compressed_pairIfNS_21__unordered_map_equalI3PSKNS_17__hash_value_typeIS2_NS_12basic_stringIcNS_11char_traitsIcEENS_9allocatorIcEEEEEENS_8equal_toIS2_EENS_4hashIS2_EELb1EEEEC2B7v160006IfNS_18__default_init_tagEEEOT_OT0_, symObjAddr: 0x16D84, symBinAddr: 0x10001846C, symSize: 0x40 }
  - { offsetInCU: 0x38911, offset: 0x38911, size: 0x8, addend: 0x0, symName: __ZNSt3__122__compressed_pair_elemINS_21__unordered_map_equalI3PSKNS_17__hash_value_typeIS2_NS_12basic_stringIcNS_11char_traitsIcEENS_9allocatorIcEEEEEENS_8equal_toIS2_EENS_4hashIS2_EELb1EEELi1ELb1EEC2B7v160006ENS_18__default_init_tagE, symObjAddr: 0x16DC4, symBinAddr: 0x1000184AC, symSize: 0x2C }
  - { offsetInCU: 0x38946, offset: 0x38946, size: 0x8, addend: 0x0, symName: __ZNSt3__121__unordered_map_equalI3PSKNS_17__hash_value_typeIS1_NS_12basic_stringIcNS_11char_traitsIcEENS_9allocatorIcEEEEEENS_8equal_toIS1_EENS_4hashIS1_EELb1EEC2B7v160006Ev, symObjAddr: 0x16DF0, symBinAddr: 0x1000184D8, symSize: 0x14 }
  - { offsetInCU: 0x38970, offset: 0x38970, size: 0x8, addend: 0x0, symName: __ZNSt3__112__hash_tableINS_17__hash_value_typeI3PSKNS_12basic_stringIcNS_11char_traitsIcEENS_9allocatorIcEEEEEENS_22__unordered_map_hasherIS2_S9_NS_4hashIS2_EENS_8equal_toIS2_EELb1EEENS_21__unordered_map_equalIS2_S9_SE_SC_Lb1EEENS6_IS9_EEE15__insert_uniqueB7v160006ERKNS_4pairIKS2_S8_EE, symObjAddr: 0x16E04, symBinAddr: 0x1000184EC, symSize: 0x50 }
  - { offsetInCU: 0x389A5, offset: 0x389A5, size: 0x8, addend: 0x0, symName: __ZNSt3__112__hash_tableINS_17__hash_value_typeI3PSKNS_12basic_stringIcNS_11char_traitsIcEENS_9allocatorIcEEEEEENS_22__unordered_map_hasherIS2_S9_NS_4hashIS2_EENS_8equal_toIS2_EELb1EEENS_21__unordered_map_equalIS2_S9_SE_SC_Lb1EEENS6_IS9_EEE25__emplace_unique_key_argsIS2_JRKNS_4pairIKS2_S8_EEEEENSL_INS_15__hash_iteratorIPNS_11__hash_nodeIS9_PvEEEEbEERKT_DpOT0_, symObjAddr: 0x16E54, symBinAddr: 0x10001853C, symSize: 0x4A4 }
  - { offsetInCU: 0x38A85, offset: 0x38A85, size: 0x8, addend: 0x0, symName: __ZNSt3__122__hash_key_value_typesINS_17__hash_value_typeI3PSKNS_12basic_stringIcNS_11char_traitsIcEENS_9allocatorIcEEEEEEE9__get_keyB7v160006ERKNS_4pairIKS2_S8_EE, symObjAddr: 0x172F8, symBinAddr: 0x1000189E0, symSize: 0x14 }
  - { offsetInCU: 0x38AA8, offset: 0x38AA8, size: 0x8, addend: 0x0, symName: __ZNSt3__112__hash_tableINS_17__hash_value_typeI3PSKNS_12basic_stringIcNS_11char_traitsIcEENS_9allocatorIcEEEEEENS_22__unordered_map_hasherIS2_S9_NS_4hashIS2_EENS_8equal_toIS2_EELb1EEENS_21__unordered_map_equalIS2_S9_SE_SC_Lb1EEENS6_IS9_EEE13hash_functionB7v160006Ev, symObjAddr: 0x1730C, symBinAddr: 0x1000189F4, symSize: 0x28 }
  - { offsetInCU: 0x38ACE, offset: 0x38ACE, size: 0x8, addend: 0x0, symName: __ZNKSt3__122__unordered_map_hasherI3PSKNS_17__hash_value_typeIS1_NS_12basic_stringIcNS_11char_traitsIcEENS_9allocatorIcEEEEEENS_4hashIS1_EENS_8equal_toIS1_EELb1EEclB7v160006ERKS1_, symObjAddr: 0x17334, symBinAddr: 0x100018A1C, symSize: 0x30 }
  - { offsetInCU: 0x38B03, offset: 0x38B03, size: 0x8, addend: 0x0, symName: __ZNKSt3__112__hash_tableINS_17__hash_value_typeI3PSKNS_12basic_stringIcNS_11char_traitsIcEENS_9allocatorIcEEEEEENS_22__unordered_map_hasherIS2_S9_NS_4hashIS2_EENS_8equal_toIS2_EELb1EEENS_21__unordered_map_equalIS2_S9_SE_SC_Lb1EEENS6_IS9_EEE12bucket_countB7v160006Ev, symObjAddr: 0x17364, symBinAddr: 0x100018A4C, symSize: 0x28 }
  - { offsetInCU: 0x38B29, offset: 0x38B29, size: 0x8, addend: 0x0, symName: __ZNKSt3__110unique_ptrIA_PNS_16__hash_node_baseIPNS_11__hash_nodeINS_17__hash_value_typeI3PSKNS_12basic_stringIcNS_11char_traitsIcEENS_9allocatorIcEEEEEEPvEEEENS_25__bucket_list_deallocatorINS8_ISG_EEEEEixB7v160006Em, symObjAddr: 0x1738C, symBinAddr: 0x100018A74, symSize: 0x34 }
  - { offsetInCU: 0x38B5E, offset: 0x38B5E, size: 0x8, addend: 0x0, symName: __ZNKSt3__116__hash_node_baseIPNS_11__hash_nodeINS_17__hash_value_typeI3PSKNS_12basic_stringIcNS_11char_traitsIcEENS_9allocatorIcEEEEEEPvEEE6__hashB7v160006Ev, symObjAddr: 0x173C0, symBinAddr: 0x100018AA8, symSize: 0x18 }
  - { offsetInCU: 0x38B84, offset: 0x38B84, size: 0x8, addend: 0x0, symName: __ZNSt3__112__hash_tableINS_17__hash_value_typeI3PSKNS_12basic_stringIcNS_11char_traitsIcEENS_9allocatorIcEEEEEENS_22__unordered_map_hasherIS2_S9_NS_4hashIS2_EENS_8equal_toIS2_EELb1EEENS_21__unordered_map_equalIS2_S9_SE_SC_Lb1EEENS6_IS9_EEE6key_eqB7v160006Ev, symObjAddr: 0x173D8, symBinAddr: 0x100018AC0, symSize: 0x28 }
  - { offsetInCU: 0x38BAA, offset: 0x38BAA, size: 0x8, addend: 0x0, symName: __ZNKSt3__121__unordered_map_equalI3PSKNS_17__hash_value_typeIS1_NS_12basic_stringIcNS_11char_traitsIcEENS_9allocatorIcEEEEEENS_8equal_toIS1_EENS_4hashIS1_EELb1EEclB7v160006ERKS9_RKS1_, symObjAddr: 0x17400, symBinAddr: 0x100018AE8, symSize: 0x48 }
  - { offsetInCU: 0x38BEE, offset: 0x38BEE, size: 0x8, addend: 0x0, symName: __ZNSt3__116__hash_node_baseIPNS_11__hash_nodeINS_17__hash_value_typeI3PSKNS_12basic_stringIcNS_11char_traitsIcEENS_9allocatorIcEEEEEEPvEEE8__upcastB7v160006Ev, symObjAddr: 0x17448, symBinAddr: 0x100018B30, symSize: 0x24 }
  - { offsetInCU: 0x38C14, offset: 0x38C14, size: 0x8, addend: 0x0, symName: __ZNSt3__112__hash_tableINS_17__hash_value_typeI3PSKNS_12basic_stringIcNS_11char_traitsIcEENS_9allocatorIcEEEEEENS_22__unordered_map_hasherIS2_S9_NS_4hashIS2_EENS_8equal_toIS2_EELb1EEENS_21__unordered_map_equalIS2_S9_SE_SC_Lb1EEENS6_IS9_EEE21__construct_node_hashIRKNS_4pairIKS2_S8_EEJEEENS_10unique_ptrINS_11__hash_nodeIS9_PvEENS_22__hash_node_destructorINS6_IST_EEEEEEmOT_DpOT0_, symObjAddr: 0x1746C, symBinAddr: 0x100018B54, symSize: 0x140 }
  - { offsetInCU: 0x38C87, offset: 0x38C87, size: 0x8, addend: 0x0, symName: __ZNSt3__112__hash_tableINS_17__hash_value_typeI3PSKNS_12basic_stringIcNS_11char_traitsIcEENS_9allocatorIcEEEEEENS_22__unordered_map_hasherIS2_S9_NS_4hashIS2_EENS_8equal_toIS2_EELb1EEENS_21__unordered_map_equalIS2_S9_SE_SC_Lb1EEENS6_IS9_EEE4sizeB7v160006Ev, symObjAddr: 0x175AC, symBinAddr: 0x100018C94, symSize: 0x28 }
  - { offsetInCU: 0x38CAD, offset: 0x38CAD, size: 0x8, addend: 0x0, symName: __ZNSt3__112__hash_tableINS_17__hash_value_typeI3PSKNS_12basic_stringIcNS_11char_traitsIcEENS_9allocatorIcEEEEEENS_22__unordered_map_hasherIS2_S9_NS_4hashIS2_EENS_8equal_toIS2_EELb1EEENS_21__unordered_map_equalIS2_S9_SE_SC_Lb1EEENS6_IS9_EEE15max_load_factorB7v160006Ev, symObjAddr: 0x175D4, symBinAddr: 0x100018CBC, symSize: 0x28 }
  - { offsetInCU: 0x38CD3, offset: 0x38CD3, size: 0x8, addend: 0x0, symName: __ZNSt3__112__hash_tableINS_17__hash_value_typeI3PSKNS_12basic_stringIcNS_11char_traitsIcEENS_9allocatorIcEEEEEENS_22__unordered_map_hasherIS2_S9_NS_4hashIS2_EENS_8equal_toIS2_EELb1EEENS_21__unordered_map_equalIS2_S9_SE_SC_Lb1EEENS6_IS9_EEE15__rehash_uniqueB7v160006Em, symObjAddr: 0x175FC, symBinAddr: 0x100018CE4, symSize: 0x2C }
  - { offsetInCU: 0x38D08, offset: 0x38D08, size: 0x8, addend: 0x0, symName: __ZNSt3__117__compressed_pairINS_16__hash_node_baseIPNS_11__hash_nodeINS_17__hash_value_typeI3PSKNS_12basic_stringIcNS_11char_traitsIcEENS_9allocatorIcEEEEEEPvEEEENS8_ISD_EEE5firstB7v160006Ev, symObjAddr: 0x17628, symBinAddr: 0x100018D10, symSize: 0x24 }
  - { offsetInCU: 0x38D2E, offset: 0x38D2E, size: 0x8, addend: 0x0, symName: __ZNSt3__116__hash_node_baseIPNS_11__hash_nodeINS_17__hash_value_typeI3PSKNS_12basic_stringIcNS_11char_traitsIcEENS_9allocatorIcEEEEEEPvEEE5__ptrB7v160006Ev, symObjAddr: 0x1764C, symBinAddr: 0x100018D34, symSize: 0x24 }
  - { offsetInCU: 0x38D54, offset: 0x38D54, size: 0x8, addend: 0x0, symName: __ZNKSt3__110unique_ptrINS_11__hash_nodeINS_17__hash_value_typeI3PSKNS_12basic_stringIcNS_11char_traitsIcEENS_9allocatorIcEEEEEEPvEENS_22__hash_node_destructorINS7_ISC_EEEEEptB7v160006Ev, symObjAddr: 0x17670, symBinAddr: 0x100018D58, symSize: 0x28 }
  - { offsetInCU: 0x38D7A, offset: 0x38D7A, size: 0x8, addend: 0x0, symName: __ZNKSt3__110unique_ptrINS_11__hash_nodeINS_17__hash_value_typeI3PSKNS_12basic_stringIcNS_11char_traitsIcEENS_9allocatorIcEEEEEEPvEENS_22__hash_node_destructorINS7_ISC_EEEEE3getB7v160006Ev, symObjAddr: 0x17698, symBinAddr: 0x100018D80, symSize: 0x28 }
  - { offsetInCU: 0x38DA0, offset: 0x38DA0, size: 0x8, addend: 0x0, symName: __ZNSt3__110unique_ptrINS_11__hash_nodeINS_17__hash_value_typeI3PSKNS_12basic_stringIcNS_11char_traitsIcEENS_9allocatorIcEEEEEEPvEENS_22__hash_node_destructorINS7_ISC_EEEEE7releaseB7v160006Ev, symObjAddr: 0x176C0, symBinAddr: 0x100018DA8, symSize: 0x44 }
  - { offsetInCU: 0x38DD5, offset: 0x38DD5, size: 0x8, addend: 0x0, symName: __ZNSt3__110unique_ptrINS_11__hash_nodeINS_17__hash_value_typeI3PSKNS_12basic_stringIcNS_11char_traitsIcEENS_9allocatorIcEEEEEEPvEENS_22__hash_node_destructorINS7_ISC_EEEEED1B7v160006Ev, symObjAddr: 0x17704, symBinAddr: 0x100018DEC, symSize: 0x2C }
  - { offsetInCU: 0x38DFF, offset: 0x38DFF, size: 0x8, addend: 0x0, symName: __ZNSt3__115__hash_iteratorIPNS_11__hash_nodeINS_17__hash_value_typeI3PSKNS_12basic_stringIcNS_11char_traitsIcEENS_9allocatorIcEEEEEEPvEEEC1B7v160006EPNS_16__hash_node_baseISD_EEPKv, symObjAddr: 0x17730, symBinAddr: 0x100018E18, symSize: 0x3C }
  - { offsetInCU: 0x38E4D, offset: 0x38E4D, size: 0x8, addend: 0x0, symName: __ZNSt3__14pairINS_15__hash_iteratorIPNS_11__hash_nodeINS_17__hash_value_typeI3PSKNS_12basic_stringIcNS_11char_traitsIcEENS_9allocatorIcEEEEEEPvEEEEbEC1B7v160006ISF_RbLSC_0EEEOT_OT0_, symObjAddr: 0x1776C, symBinAddr: 0x100018E54, symSize: 0x3C }
  - { offsetInCU: 0x38EAB, offset: 0x38EAB, size: 0x8, addend: 0x0, symName: __ZNSt3__117__compressed_pairImNS_22__unordered_map_hasherI3PSKNS_17__hash_value_typeIS2_NS_12basic_stringIcNS_11char_traitsIcEENS_9allocatorIcEEEEEENS_4hashIS2_EENS_8equal_toIS2_EELb1EEEE6secondB7v160006Ev, symObjAddr: 0x177A8, symBinAddr: 0x100018E90, symSize: 0x24 }
  - { offsetInCU: 0x38ED1, offset: 0x38ED1, size: 0x8, addend: 0x0, symName: __ZNSt3__122__compressed_pair_elemINS_22__unordered_map_hasherI3PSKNS_17__hash_value_typeIS2_NS_12basic_stringIcNS_11char_traitsIcEENS_9allocatorIcEEEEEENS_4hashIS2_EENS_8equal_toIS2_EELb1EEELi1ELb1EE5__getB7v160006Ev, symObjAddr: 0x177CC, symBinAddr: 0x100018EB4, symSize: 0x14 }
  - { offsetInCU: 0x38EF7, offset: 0x38EF7, size: 0x8, addend: 0x0, symName: __ZNKSt3__110unique_ptrIA_PNS_16__hash_node_baseIPNS_11__hash_nodeINS_17__hash_value_typeI3PSKNS_12basic_stringIcNS_11char_traitsIcEENS_9allocatorIcEEEEEEPvEEEENS_25__bucket_list_deallocatorINS8_ISG_EEEEE11get_deleterB7v160006Ev, symObjAddr: 0x177E0, symBinAddr: 0x100018EC8, symSize: 0x24 }
  - { offsetInCU: 0x38F1D, offset: 0x38F1D, size: 0x8, addend: 0x0, symName: __ZNKSt3__125__bucket_list_deallocatorINS_9allocatorIPNS_16__hash_node_baseIPNS_11__hash_nodeINS_17__hash_value_typeI3PSKNS_12basic_stringIcNS_11char_traitsIcEENS1_IcEEEEEEPvEEEEEEE4sizeB7v160006Ev, symObjAddr: 0x17804, symBinAddr: 0x100018EEC, symSize: 0x28 }
  - { offsetInCU: 0x38F43, offset: 0x38F43, size: 0x8, addend: 0x0, symName: __ZNKSt3__117__compressed_pairIPPNS_16__hash_node_baseIPNS_11__hash_nodeINS_17__hash_value_typeI3PSKNS_12basic_stringIcNS_11char_traitsIcEENS_9allocatorIcEEEEEEPvEEEENS_25__bucket_list_deallocatorINS8_ISG_EEEEE6secondB7v160006Ev, symObjAddr: 0x1782C, symBinAddr: 0x100018F14, symSize: 0x28 }
  - { offsetInCU: 0x38F69, offset: 0x38F69, size: 0x8, addend: 0x0, symName: __ZNKSt3__122__compressed_pair_elemINS_25__bucket_list_deallocatorINS_9allocatorIPNS_16__hash_node_baseIPNS_11__hash_nodeINS_17__hash_value_typeI3PSKNS_12basic_stringIcNS_11char_traitsIcEENS2_IcEEEEEEPvEEEEEEEELi1ELb0EE5__getB7v160006Ev, symObjAddr: 0x17854, symBinAddr: 0x100018F3C, symSize: 0x14 }
  - { offsetInCU: 0x38F8F, offset: 0x38F8F, size: 0x8, addend: 0x0, symName: __ZNKSt3__117__compressed_pairImNS_9allocatorIPNS_16__hash_node_baseIPNS_11__hash_nodeINS_17__hash_value_typeI3PSKNS_12basic_stringIcNS_11char_traitsIcEENS1_IcEEEEEEPvEEEEEEE5firstB7v160006Ev, symObjAddr: 0x17868, symBinAddr: 0x100018F50, symSize: 0x24 }
  - { offsetInCU: 0x38FB5, offset: 0x38FB5, size: 0x8, addend: 0x0, symName: __ZNKSt3__117__compressed_pairIPPNS_16__hash_node_baseIPNS_11__hash_nodeINS_17__hash_value_typeI3PSKNS_12basic_stringIcNS_11char_traitsIcEENS_9allocatorIcEEEEEEPvEEEENS_25__bucket_list_deallocatorINS8_ISG_EEEEE5firstB7v160006Ev, symObjAddr: 0x1788C, symBinAddr: 0x100018F74, symSize: 0x24 }
  - { offsetInCU: 0x38FDB, offset: 0x38FDB, size: 0x8, addend: 0x0, symName: __ZNKSt3__122__compressed_pair_elemIPPNS_16__hash_node_baseIPNS_11__hash_nodeINS_17__hash_value_typeI3PSKNS_12basic_stringIcNS_11char_traitsIcEENS_9allocatorIcEEEEEEPvEEEELi0ELb0EE5__getB7v160006Ev, symObjAddr: 0x178B0, symBinAddr: 0x100018F98, symSize: 0x14 }
  - { offsetInCU: 0x39001, offset: 0x39001, size: 0x8, addend: 0x0, symName: __ZNSt3__117__compressed_pairIfNS_21__unordered_map_equalI3PSKNS_17__hash_value_typeIS2_NS_12basic_stringIcNS_11char_traitsIcEENS_9allocatorIcEEEEEENS_8equal_toIS2_EENS_4hashIS2_EELb1EEEE6secondB7v160006Ev, symObjAddr: 0x178C4, symBinAddr: 0x100018FAC, symSize: 0x24 }
  - { offsetInCU: 0x39027, offset: 0x39027, size: 0x8, addend: 0x0, symName: __ZNSt3__122__compressed_pair_elemINS_21__unordered_map_equalI3PSKNS_17__hash_value_typeIS2_NS_12basic_stringIcNS_11char_traitsIcEENS_9allocatorIcEEEEEENS_8equal_toIS2_EENS_4hashIS2_EELb1EEELi1ELb1EE5__getB7v160006Ev, symObjAddr: 0x178E8, symBinAddr: 0x100018FD0, symSize: 0x14 }
  - { offsetInCU: 0x3904D, offset: 0x3904D, size: 0x8, addend: 0x0, symName: __ZNKSt3__117__hash_value_typeI3PSKNS_12basic_stringIcNS_11char_traitsIcEENS_9allocatorIcEEEEE11__get_valueB7v160006Ev, symObjAddr: 0x178FC, symBinAddr: 0x100018FE4, symSize: 0x24 }
  - { offsetInCU: 0x39073, offset: 0x39073, size: 0x8, addend: 0x0, symName: __ZNSt3__114pointer_traitsIPNS_16__hash_node_baseIPNS_11__hash_nodeINS_17__hash_value_typeI3PSKNS_12basic_stringIcNS_11char_traitsIcEENS_9allocatorIcEEEEEEPvEEEEE10pointer_toB7v160006ERSF_, symObjAddr: 0x17958, symBinAddr: 0x100019040, symSize: 0x14 }
  - { offsetInCU: 0x39096, offset: 0x39096, size: 0x8, addend: 0x0, symName: __ZNSt3__112__hash_tableINS_17__hash_value_typeI3PSKNS_12basic_stringIcNS_11char_traitsIcEENS_9allocatorIcEEEEEENS_22__unordered_map_hasherIS2_S9_NS_4hashIS2_EENS_8equal_toIS2_EELb1EEENS_21__unordered_map_equalIS2_S9_SE_SC_Lb1EEENS6_IS9_EEE12__node_allocB7v160006Ev, symObjAddr: 0x1796C, symBinAddr: 0x100019054, symSize: 0x28 }
  - { offsetInCU: 0x390BC, offset: 0x390BC, size: 0x8, addend: 0x0, symName: __ZNSt3__116allocator_traitsINS_9allocatorINS_11__hash_nodeINS_17__hash_value_typeI3PSKNS_12basic_stringIcNS_11char_traitsIcEENS1_IcEEEEEEPvEEEEE8allocateB7v160006ERSD_m, symObjAddr: 0x17994, symBinAddr: 0x10001907C, symSize: 0x2C }
  - { offsetInCU: 0x390EF, offset: 0x390EF, size: 0x8, addend: 0x0, symName: __ZNSt3__122__hash_node_destructorINS_9allocatorINS_11__hash_nodeINS_17__hash_value_typeI3PSKNS_12basic_stringIcNS_11char_traitsIcEENS1_IcEEEEEEPvEEEEEC1B7v160006ERSD_b, symObjAddr: 0x179C0, symBinAddr: 0x1000190A8, symSize: 0x48 }
  - { offsetInCU: 0x3913D, offset: 0x3913D, size: 0x8, addend: 0x0, symName: __ZNSt3__110unique_ptrINS_11__hash_nodeINS_17__hash_value_typeI3PSKNS_12basic_stringIcNS_11char_traitsIcEENS_9allocatorIcEEEEEEPvEENS_22__hash_node_destructorINS7_ISC_EEEEEC1B7v160006ILb1EvEEPSC_NS_16__dependent_typeINS_27__unique_ptr_deleter_sfinaeISF_EEXT_EE20__good_rval_ref_typeE, symObjAddr: 0x17A08, symBinAddr: 0x1000190F0, symSize: 0x3C }
  - { offsetInCU: 0x3918E, offset: 0x3918E, size: 0x8, addend: 0x0, symName: __ZNSt3__116allocator_traitsINS_9allocatorINS_11__hash_nodeINS_17__hash_value_typeI3PSKNS_12basic_stringIcNS_11char_traitsIcEENS1_IcEEEEEEPvEEEEE9constructB7v160006INS_4pairIKS4_S9_EEJRKSI_EvEEvRSD_PT_DpOT0_, symObjAddr: 0x17A44, symBinAddr: 0x10001912C, symSize: 0x34 }
  - { offsetInCU: 0x391E5, offset: 0x391E5, size: 0x8, addend: 0x0, symName: __ZNSt3__122__hash_key_value_typesINS_17__hash_value_typeI3PSKNS_12basic_stringIcNS_11char_traitsIcEENS_9allocatorIcEEEEEEE9__get_ptrB7v160006ERS9_, symObjAddr: 0x17A78, symBinAddr: 0x100019160, symSize: 0x24 }
  - { offsetInCU: 0x39208, offset: 0x39208, size: 0x8, addend: 0x0, symName: __ZNSt3__110unique_ptrINS_11__hash_nodeINS_17__hash_value_typeI3PSKNS_12basic_stringIcNS_11char_traitsIcEENS_9allocatorIcEEEEEEPvEENS_22__hash_node_destructorINS7_ISC_EEEEE11get_deleterB7v160006Ev, symObjAddr: 0x17A9C, symBinAddr: 0x100019184, symSize: 0x24 }
  - { offsetInCU: 0x3922E, offset: 0x3922E, size: 0x8, addend: 0x0, symName: __ZNSt3__117__compressed_pairINS_16__hash_node_baseIPNS_11__hash_nodeINS_17__hash_value_typeI3PSKNS_12basic_stringIcNS_11char_traitsIcEENS_9allocatorIcEEEEEEPvEEEENS8_ISD_EEE6secondB7v160006Ev, symObjAddr: 0x17AC0, symBinAddr: 0x1000191A8, symSize: 0x24 }
  - { offsetInCU: 0x39254, offset: 0x39254, size: 0x8, addend: 0x0, symName: __ZNSt3__122__compressed_pair_elemINS_9allocatorINS_11__hash_nodeINS_17__hash_value_typeI3PSKNS_12basic_stringIcNS_11char_traitsIcEENS1_IcEEEEEEPvEEEELi1ELb1EE5__getB7v160006Ev, symObjAddr: 0x17AE4, symBinAddr: 0x1000191CC, symSize: 0x14 }
  - { offsetInCU: 0x3927A, offset: 0x3927A, size: 0x8, addend: 0x0, symName: __ZNSt3__19allocatorINS_11__hash_nodeINS_17__hash_value_typeI3PSKNS_12basic_stringIcNS_11char_traitsIcEENS0_IcEEEEEEPvEEE8allocateB7v160006Em, symObjAddr: 0x17AF8, symBinAddr: 0x1000191E0, symSize: 0x5C }
  - { offsetInCU: 0x392B9, offset: 0x392B9, size: 0x8, addend: 0x0, symName: __ZNSt3__116allocator_traitsINS_9allocatorINS_11__hash_nodeINS_17__hash_value_typeI3PSKNS_12basic_stringIcNS_11char_traitsIcEENS1_IcEEEEEEPvEEEEE8max_sizeB7v160006ISD_vEEmRKSD_, symObjAddr: 0x17B54, symBinAddr: 0x10001923C, symSize: 0x24 }
  - { offsetInCU: 0x392E7, offset: 0x392E7, size: 0x8, addend: 0x0, symName: __ZNKSt3__19allocatorINS_11__hash_nodeINS_17__hash_value_typeI3PSKNS_12basic_stringIcNS_11char_traitsIcEENS0_IcEEEEEEPvEEE8max_sizeB7v160006Ev, symObjAddr: 0x17B78, symBinAddr: 0x100019260, symSize: 0x18 }
  - { offsetInCU: 0x3930D, offset: 0x3930D, size: 0x8, addend: 0x0, symName: __ZNSt3__122__hash_node_destructorINS_9allocatorINS_11__hash_nodeINS_17__hash_value_typeI3PSKNS_12basic_stringIcNS_11char_traitsIcEENS1_IcEEEEEEPvEEEEEC2B7v160006ERSD_b, symObjAddr: 0x17B90, symBinAddr: 0x100019278, symSize: 0x38 }
  - { offsetInCU: 0x39355, offset: 0x39355, size: 0x8, addend: 0x0, symName: __ZNSt3__110unique_ptrINS_11__hash_nodeINS_17__hash_value_typeI3PSKNS_12basic_stringIcNS_11char_traitsIcEENS_9allocatorIcEEEEEEPvEENS_22__hash_node_destructorINS7_ISC_EEEEEC2B7v160006ILb1EvEEPSC_NS_16__dependent_typeINS_27__unique_ptr_deleter_sfinaeISF_EEXT_EE20__good_rval_ref_typeE, symObjAddr: 0x17BC8, symBinAddr: 0x1000192B0, symSize: 0x48 }
  - { offsetInCU: 0x393A6, offset: 0x393A6, size: 0x8, addend: 0x0, symName: __ZNSt3__117__compressed_pairIPNS_11__hash_nodeINS_17__hash_value_typeI3PSKNS_12basic_stringIcNS_11char_traitsIcEENS_9allocatorIcEEEEEEPvEENS_22__hash_node_destructorINS7_ISC_EEEEEC1B7v160006IRSD_SG_EEOT_OT0_, symObjAddr: 0x17C10, symBinAddr: 0x1000192F8, symSize: 0x3C }
  - { offsetInCU: 0x393FE, offset: 0x393FE, size: 0x8, addend: 0x0, symName: __ZNSt3__117__compressed_pairIPNS_11__hash_nodeINS_17__hash_value_typeI3PSKNS_12basic_stringIcNS_11char_traitsIcEENS_9allocatorIcEEEEEEPvEENS_22__hash_node_destructorINS7_ISC_EEEEEC2B7v160006IRSD_SG_EEOT_OT0_, symObjAddr: 0x17C4C, symBinAddr: 0x100019334, symSize: 0x48 }
  - { offsetInCU: 0x39456, offset: 0x39456, size: 0x8, addend: 0x0, symName: __ZNSt3__122__compressed_pair_elemIPNS_11__hash_nodeINS_17__hash_value_typeI3PSKNS_12basic_stringIcNS_11char_traitsIcEENS_9allocatorIcEEEEEEPvEELi0ELb0EEC2B7v160006IRSD_vEEOT_, symObjAddr: 0x17C94, symBinAddr: 0x10001937C, symSize: 0x24 }
  - { offsetInCU: 0x39498, offset: 0x39498, size: 0x8, addend: 0x0, symName: __ZNSt3__122__compressed_pair_elemINS_22__hash_node_destructorINS_9allocatorINS_11__hash_nodeINS_17__hash_value_typeI3PSKNS_12basic_stringIcNS_11char_traitsIcEENS2_IcEEEEEEPvEEEEEELi1ELb0EEC2B7v160006ISF_vEEOT_, symObjAddr: 0x17CB8, symBinAddr: 0x1000193A0, symSize: 0x24 }
  - { offsetInCU: 0x394DA, offset: 0x394DA, size: 0x8, addend: 0x0, symName: __ZNSt3__19allocatorINS_11__hash_nodeINS_17__hash_value_typeI3PSKNS_12basic_stringIcNS_11char_traitsIcEENS0_IcEEEEEEPvEEE9constructB7v160006INS_4pairIKS3_S8_EEJRKSG_EEEvPT_DpOT0_, symObjAddr: 0x17CDC, symBinAddr: 0x1000193C4, symSize: 0x30 }
  - { offsetInCU: 0x39530, offset: 0x39530, size: 0x8, addend: 0x0, symName: __ZNSt3__14pairIK3PSKNS_12basic_stringIcNS_11char_traitsIcEENS_9allocatorIcEEEEEC1ERKS9_, symObjAddr: 0x17D0C, symBinAddr: 0x1000193F4, symSize: 0x34 }
  - { offsetInCU: 0x39565, offset: 0x39565, size: 0x8, addend: 0x0, symName: __ZNSt3__14pairIK3PSKNS_12basic_stringIcNS_11char_traitsIcEENS_9allocatorIcEEEEEC2ERKS9_, symObjAddr: 0x17D40, symBinAddr: 0x100019428, symSize: 0x48 }
  - { offsetInCU: 0x3959A, offset: 0x3959A, size: 0x8, addend: 0x0, symName: __ZNSt3__117__hash_value_typeI3PSKNS_12basic_stringIcNS_11char_traitsIcEENS_9allocatorIcEEEEE11__get_valueB7v160006Ev, symObjAddr: 0x17D88, symBinAddr: 0x100019470, symSize: 0x24 }
  - { offsetInCU: 0x395C0, offset: 0x395C0, size: 0x8, addend: 0x0, symName: __ZNSt3__117__compressed_pairIPNS_11__hash_nodeINS_17__hash_value_typeI3PSKNS_12basic_stringIcNS_11char_traitsIcEENS_9allocatorIcEEEEEEPvEENS_22__hash_node_destructorINS7_ISC_EEEEE6secondB7v160006Ev, symObjAddr: 0x17DE4, symBinAddr: 0x1000194CC, symSize: 0x28 }
  - { offsetInCU: 0x395E6, offset: 0x395E6, size: 0x8, addend: 0x0, symName: __ZNSt3__122__compressed_pair_elemINS_22__hash_node_destructorINS_9allocatorINS_11__hash_nodeINS_17__hash_value_typeI3PSKNS_12basic_stringIcNS_11char_traitsIcEENS2_IcEEEEEEPvEEEEEELi1ELb0EE5__getB7v160006Ev, symObjAddr: 0x17E0C, symBinAddr: 0x1000194F4, symSize: 0x14 }
  - { offsetInCU: 0x3960C, offset: 0x3960C, size: 0x8, addend: 0x0, symName: __ZNSt3__117__compressed_pairImNS_22__unordered_map_hasherI3PSKNS_17__hash_value_typeIS2_NS_12basic_stringIcNS_11char_traitsIcEENS_9allocatorIcEEEEEENS_4hashIS2_EENS_8equal_toIS2_EELb1EEEE5firstB7v160006Ev, symObjAddr: 0x17E20, symBinAddr: 0x100019508, symSize: 0x24 }
  - { offsetInCU: 0x39632, offset: 0x39632, size: 0x8, addend: 0x0, symName: __ZNSt3__117__compressed_pairIfNS_21__unordered_map_equalI3PSKNS_17__hash_value_typeIS2_NS_12basic_stringIcNS_11char_traitsIcEENS_9allocatorIcEEEEEENS_8equal_toIS2_EENS_4hashIS2_EELb1EEEE5firstB7v160006Ev, symObjAddr: 0x17E44, symBinAddr: 0x10001952C, symSize: 0x24 }
  - { offsetInCU: 0x39658, offset: 0x39658, size: 0x8, addend: 0x0, symName: __ZNSt3__112__hash_tableINS_17__hash_value_typeI3PSKNS_12basic_stringIcNS_11char_traitsIcEENS_9allocatorIcEEEEEENS_22__unordered_map_hasherIS2_S9_NS_4hashIS2_EENS_8equal_toIS2_EELb1EEENS_21__unordered_map_equalIS2_S9_SE_SC_Lb1EEENS6_IS9_EEE8__rehashILb1EEEvm, symObjAddr: 0x17E68, symBinAddr: 0x100019550, symSize: 0x1A8 }
  - { offsetInCU: 0x396A8, offset: 0x396A8, size: 0x8, addend: 0x0, symName: __ZNSt3__112__hash_tableINS_17__hash_value_typeI3PSKNS_12basic_stringIcNS_11char_traitsIcEENS_9allocatorIcEEEEEENS_22__unordered_map_hasherIS2_S9_NS_4hashIS2_EENS_8equal_toIS2_EELb1EEENS_21__unordered_map_equalIS2_S9_SE_SC_Lb1EEENS6_IS9_EEE11__do_rehashILb1EEEvm, symObjAddr: 0x18010, symBinAddr: 0x1000196F8, symSize: 0x290 }
  - { offsetInCU: 0x3978B, offset: 0x3978B, size: 0x8, addend: 0x0, symName: __ZNSt3__110unique_ptrIA_PNS_16__hash_node_baseIPNS_11__hash_nodeINS_17__hash_value_typeI3PSKNS_12basic_stringIcNS_11char_traitsIcEENS_9allocatorIcEEEEEEPvEEEENS_25__bucket_list_deallocatorINS8_ISG_EEEEE11get_deleterB7v160006Ev, symObjAddr: 0x182B0, symBinAddr: 0x100019998, symSize: 0x24 }
  - { offsetInCU: 0x397B1, offset: 0x397B1, size: 0x8, addend: 0x0, symName: __ZNSt3__125__bucket_list_deallocatorINS_9allocatorIPNS_16__hash_node_baseIPNS_11__hash_nodeINS_17__hash_value_typeI3PSKNS_12basic_stringIcNS_11char_traitsIcEENS1_IcEEEEEEPvEEEEEEE7__allocB7v160006Ev, symObjAddr: 0x182D4, symBinAddr: 0x1000199BC, symSize: 0x24 }
  - { offsetInCU: 0x397D7, offset: 0x397D7, size: 0x8, addend: 0x0, symName: __ZNSt3__110unique_ptrIA_PNS_16__hash_node_baseIPNS_11__hash_nodeINS_17__hash_value_typeI3PSKNS_12basic_stringIcNS_11char_traitsIcEENS_9allocatorIcEEEEEEPvEEEENS_25__bucket_list_deallocatorINS8_ISG_EEEEE5resetB7v160006IPSG_EENS_9enable_ifIXsr28_CheckArrayPointerConversionIT_EE5valueEvE4typeESP_, symObjAddr: 0x182F8, symBinAddr: 0x1000199E0, symSize: 0x78 }
  - { offsetInCU: 0x39824, offset: 0x39824, size: 0x8, addend: 0x0, symName: __ZNSt3__116allocator_traitsINS_9allocatorIPNS_16__hash_node_baseIPNS_11__hash_nodeINS_17__hash_value_typeI3PSKNS_12basic_stringIcNS_11char_traitsIcEENS1_IcEEEEEEPvEEEEEEE8allocateB7v160006ERSH_m, symObjAddr: 0x18370, symBinAddr: 0x100019A58, symSize: 0x2C }
  - { offsetInCU: 0x39857, offset: 0x39857, size: 0x8, addend: 0x0, symName: __ZNSt3__125__bucket_list_deallocatorINS_9allocatorIPNS_16__hash_node_baseIPNS_11__hash_nodeINS_17__hash_value_typeI3PSKNS_12basic_stringIcNS_11char_traitsIcEENS1_IcEEEEEEPvEEEEEEE4sizeB7v160006Ev, symObjAddr: 0x1839C, symBinAddr: 0x100019A84, symSize: 0x24 }
  - { offsetInCU: 0x3987D, offset: 0x3987D, size: 0x8, addend: 0x0, symName: __ZNSt3__117__compressed_pairIPPNS_16__hash_node_baseIPNS_11__hash_nodeINS_17__hash_value_typeI3PSKNS_12basic_stringIcNS_11char_traitsIcEENS_9allocatorIcEEEEEEPvEEEENS_25__bucket_list_deallocatorINS8_ISG_EEEEE6secondB7v160006Ev, symObjAddr: 0x183C0, symBinAddr: 0x100019AA8, symSize: 0x28 }
  - { offsetInCU: 0x398A3, offset: 0x398A3, size: 0x8, addend: 0x0, symName: __ZNSt3__122__compressed_pair_elemINS_25__bucket_list_deallocatorINS_9allocatorIPNS_16__hash_node_baseIPNS_11__hash_nodeINS_17__hash_value_typeI3PSKNS_12basic_stringIcNS_11char_traitsIcEENS2_IcEEEEEEPvEEEEEEEELi1ELb0EE5__getB7v160006Ev, symObjAddr: 0x183E8, symBinAddr: 0x100019AD0, symSize: 0x14 }
  - { offsetInCU: 0x398C9, offset: 0x398C9, size: 0x8, addend: 0x0, symName: __ZNSt3__117__compressed_pairImNS_9allocatorIPNS_16__hash_node_baseIPNS_11__hash_nodeINS_17__hash_value_typeI3PSKNS_12basic_stringIcNS_11char_traitsIcEENS1_IcEEEEEEPvEEEEEEE6secondB7v160006Ev, symObjAddr: 0x183FC, symBinAddr: 0x100019AE4, symSize: 0x24 }
  - { offsetInCU: 0x398EF, offset: 0x398EF, size: 0x8, addend: 0x0, symName: __ZNSt3__122__compressed_pair_elemINS_9allocatorIPNS_16__hash_node_baseIPNS_11__hash_nodeINS_17__hash_value_typeI3PSKNS_12basic_stringIcNS_11char_traitsIcEENS1_IcEEEEEEPvEEEEEELi1ELb1EE5__getB7v160006Ev, symObjAddr: 0x18420, symBinAddr: 0x100019B08, symSize: 0x14 }
  - { offsetInCU: 0x39915, offset: 0x39915, size: 0x8, addend: 0x0, symName: __ZNSt3__117__compressed_pairIPPNS_16__hash_node_baseIPNS_11__hash_nodeINS_17__hash_value_typeI3PSKNS_12basic_stringIcNS_11char_traitsIcEENS_9allocatorIcEEEEEEPvEEEENS_25__bucket_list_deallocatorINS8_ISG_EEEEE5firstB7v160006Ev, symObjAddr: 0x18434, symBinAddr: 0x100019B1C, symSize: 0x24 }
  - { offsetInCU: 0x3993B, offset: 0x3993B, size: 0x8, addend: 0x0, symName: __ZNSt3__125__bucket_list_deallocatorINS_9allocatorIPNS_16__hash_node_baseIPNS_11__hash_nodeINS_17__hash_value_typeI3PSKNS_12basic_stringIcNS_11char_traitsIcEENS1_IcEEEEEEPvEEEEEEEclB7v160006EPSG_, symObjAddr: 0x18458, symBinAddr: 0x100019B40, symSize: 0x58 }
  - { offsetInCU: 0x39970, offset: 0x39970, size: 0x8, addend: 0x0, symName: __ZNSt3__122__compressed_pair_elemIPPNS_16__hash_node_baseIPNS_11__hash_nodeINS_17__hash_value_typeI3PSKNS_12basic_stringIcNS_11char_traitsIcEENS_9allocatorIcEEEEEEPvEEEELi0ELb0EE5__getB7v160006Ev, symObjAddr: 0x184B0, symBinAddr: 0x100019B98, symSize: 0x14 }
  - { offsetInCU: 0x39996, offset: 0x39996, size: 0x8, addend: 0x0, symName: __ZNSt3__116allocator_traitsINS_9allocatorIPNS_16__hash_node_baseIPNS_11__hash_nodeINS_17__hash_value_typeI3PSKNS_12basic_stringIcNS_11char_traitsIcEENS1_IcEEEEEEPvEEEEEEE10deallocateB7v160006ERSH_PSG_m, symObjAddr: 0x184C4, symBinAddr: 0x100019BAC, symSize: 0x34 }
  - { offsetInCU: 0x399D8, offset: 0x399D8, size: 0x8, addend: 0x0, symName: __ZNSt3__19allocatorIPNS_16__hash_node_baseIPNS_11__hash_nodeINS_17__hash_value_typeI3PSKNS_12basic_stringIcNS_11char_traitsIcEENS0_IcEEEEEEPvEEEEE10deallocateB7v160006EPSF_m, symObjAddr: 0x184F8, symBinAddr: 0x100019BE0, symSize: 0x40 }
  - { offsetInCU: 0x39A1A, offset: 0x39A1A, size: 0x8, addend: 0x0, symName: __ZNSt3__19allocatorIPNS_16__hash_node_baseIPNS_11__hash_nodeINS_17__hash_value_typeI3PSKNS_12basic_stringIcNS_11char_traitsIcEENS0_IcEEEEEEPvEEEEE8allocateB7v160006Em, symObjAddr: 0x18538, symBinAddr: 0x100019C20, symSize: 0x58 }
  - { offsetInCU: 0x39A59, offset: 0x39A59, size: 0x8, addend: 0x0, symName: __ZNSt3__116allocator_traitsINS_9allocatorIPNS_16__hash_node_baseIPNS_11__hash_nodeINS_17__hash_value_typeI3PSKNS_12basic_stringIcNS_11char_traitsIcEENS1_IcEEEEEEPvEEEEEEE8max_sizeB7v160006ISH_vEEmRKSH_, symObjAddr: 0x18590, symBinAddr: 0x100019C78, symSize: 0x24 }
  - { offsetInCU: 0x39A87, offset: 0x39A87, size: 0x8, addend: 0x0, symName: __ZNKSt3__19allocatorIPNS_16__hash_node_baseIPNS_11__hash_nodeINS_17__hash_value_typeI3PSKNS_12basic_stringIcNS_11char_traitsIcEENS0_IcEEEEEEPvEEEEE8max_sizeB7v160006Ev, symObjAddr: 0x185B4, symBinAddr: 0x100019C9C, symSize: 0x14 }
  - { offsetInCU: 0x39AAD, offset: 0x39AAD, size: 0x8, addend: 0x0, symName: __ZNSt3__117__compressed_pairImNS_9allocatorIPNS_16__hash_node_baseIPNS_11__hash_nodeINS_17__hash_value_typeI3PSKNS_12basic_stringIcNS_11char_traitsIcEENS1_IcEEEEEEPvEEEEEEE5firstB7v160006Ev, symObjAddr: 0x185C8, symBinAddr: 0x100019CB0, symSize: 0x24 }
  - { offsetInCU: 0x39AD3, offset: 0x39AD3, size: 0x8, addend: 0x0, symName: __ZNSt3__122__compressed_pair_elemINS_16__hash_node_baseIPNS_11__hash_nodeINS_17__hash_value_typeI3PSKNS_12basic_stringIcNS_11char_traitsIcEENS_9allocatorIcEEEEEEPvEEEELi0ELb0EE5__getB7v160006Ev, symObjAddr: 0x185EC, symBinAddr: 0x100019CD4, symSize: 0x14 }
  - { offsetInCU: 0x39AF9, offset: 0x39AF9, size: 0x8, addend: 0x0, symName: __ZNKSt3__117__compressed_pairIPNS_11__hash_nodeINS_17__hash_value_typeI3PSKNS_12basic_stringIcNS_11char_traitsIcEENS_9allocatorIcEEEEEEPvEENS_22__hash_node_destructorINS7_ISC_EEEEE5firstB7v160006Ev, symObjAddr: 0x18600, symBinAddr: 0x100019CE8, symSize: 0x24 }
  - { offsetInCU: 0x39B1F, offset: 0x39B1F, size: 0x8, addend: 0x0, symName: __ZNKSt3__122__compressed_pair_elemIPNS_11__hash_nodeINS_17__hash_value_typeI3PSKNS_12basic_stringIcNS_11char_traitsIcEENS_9allocatorIcEEEEEEPvEELi0ELb0EE5__getB7v160006Ev, symObjAddr: 0x18624, symBinAddr: 0x100019D0C, symSize: 0x14 }
  - { offsetInCU: 0x39B45, offset: 0x39B45, size: 0x8, addend: 0x0, symName: __ZNSt3__117__compressed_pairIPNS_11__hash_nodeINS_17__hash_value_typeI3PSKNS_12basic_stringIcNS_11char_traitsIcEENS_9allocatorIcEEEEEEPvEENS_22__hash_node_destructorINS7_ISC_EEEEE5firstB7v160006Ev, symObjAddr: 0x18638, symBinAddr: 0x100019D20, symSize: 0x24 }
  - { offsetInCU: 0x39B6B, offset: 0x39B6B, size: 0x8, addend: 0x0, symName: __ZNSt3__122__compressed_pair_elemIPNS_11__hash_nodeINS_17__hash_value_typeI3PSKNS_12basic_stringIcNS_11char_traitsIcEENS_9allocatorIcEEEEEEPvEELi0ELb0EE5__getB7v160006Ev, symObjAddr: 0x1865C, symBinAddr: 0x100019D44, symSize: 0x14 }
  - { offsetInCU: 0x39B91, offset: 0x39B91, size: 0x8, addend: 0x0, symName: __ZNSt3__110unique_ptrINS_11__hash_nodeINS_17__hash_value_typeI3PSKNS_12basic_stringIcNS_11char_traitsIcEENS_9allocatorIcEEEEEEPvEENS_22__hash_node_destructorINS7_ISC_EEEEED2B7v160006Ev, symObjAddr: 0x18670, symBinAddr: 0x100019D58, symSize: 0x30 }
  - { offsetInCU: 0x39BBB, offset: 0x39BBB, size: 0x8, addend: 0x0, symName: __ZNSt3__110unique_ptrINS_11__hash_nodeINS_17__hash_value_typeI3PSKNS_12basic_stringIcNS_11char_traitsIcEENS_9allocatorIcEEEEEEPvEENS_22__hash_node_destructorINS7_ISC_EEEEE5resetB7v160006EPSC_, symObjAddr: 0x186A0, symBinAddr: 0x100019D88, symSize: 0x78 }
  - { offsetInCU: 0x39BFF, offset: 0x39BFF, size: 0x8, addend: 0x0, symName: __ZNSt3__122__hash_node_destructorINS_9allocatorINS_11__hash_nodeINS_17__hash_value_typeI3PSKNS_12basic_stringIcNS_11char_traitsIcEENS1_IcEEEEEEPvEEEEEclB7v160006EPSC_, symObjAddr: 0x18718, symBinAddr: 0x100019E00, symSize: 0x98 }
  - { offsetInCU: 0x39C34, offset: 0x39C34, size: 0x8, addend: 0x0, symName: __ZNSt3__116allocator_traitsINS_9allocatorINS_11__hash_nodeINS_17__hash_value_typeI3PSKNS_12basic_stringIcNS_11char_traitsIcEENS1_IcEEEEEEPvEEEEE7destroyB7v160006INS_4pairIKS4_S9_EEvvEEvRSD_PT_, symObjAddr: 0x187B0, symBinAddr: 0x100019E98, symSize: 0x28 }
  - { offsetInCU: 0x39C6F, offset: 0x39C6F, size: 0x8, addend: 0x0, symName: __ZNSt3__116allocator_traitsINS_9allocatorINS_11__hash_nodeINS_17__hash_value_typeI3PSKNS_12basic_stringIcNS_11char_traitsIcEENS1_IcEEEEEEPvEEEEE10deallocateB7v160006ERSD_PSC_m, symObjAddr: 0x187D8, symBinAddr: 0x100019EC0, symSize: 0x34 }
  - { offsetInCU: 0x39CB1, offset: 0x39CB1, size: 0x8, addend: 0x0, symName: __ZNSt3__19allocatorINS_11__hash_nodeINS_17__hash_value_typeI3PSKNS_12basic_stringIcNS_11char_traitsIcEENS0_IcEEEEEEPvEEE10deallocateB7v160006EPSB_m, symObjAddr: 0x1880C, symBinAddr: 0x100019EF4, symSize: 0x44 }
  - { offsetInCU: 0x39CF3, offset: 0x39CF3, size: 0x8, addend: 0x0, symName: __ZNSt3__115__hash_iteratorIPNS_11__hash_nodeINS_17__hash_value_typeI3PSKNS_12basic_stringIcNS_11char_traitsIcEENS_9allocatorIcEEEEEEPvEEEC2B7v160006EPNS_16__hash_node_baseISD_EEPKv, symObjAddr: 0x18850, symBinAddr: 0x100019F38, symSize: 0x24 }
  - { offsetInCU: 0x39D3B, offset: 0x39D3B, size: 0x8, addend: 0x0, symName: __ZNSt3__14pairINS_15__hash_iteratorIPNS_11__hash_nodeINS_17__hash_value_typeI3PSKNS_12basic_stringIcNS_11char_traitsIcEENS_9allocatorIcEEEEEEPvEEEEbEC2B7v160006ISF_RbLSC_0EEEOT_OT0_, symObjAddr: 0x18874, symBinAddr: 0x100019F5C, symSize: 0x38 }
  - { offsetInCU: 0x39D99, offset: 0x39D99, size: 0x8, addend: 0x0, symName: __ZNSt3__112__hash_tableINS_17__hash_value_typeI3PSKNS_12basic_stringIcNS_11char_traitsIcEENS_9allocatorIcEEEEEENS_22__unordered_map_hasherIS2_S9_NS_4hashIS2_EENS_8equal_toIS2_EELb1EEENS_21__unordered_map_equalIS2_S9_SE_SC_Lb1EEENS6_IS9_EEED2Ev, symObjAddr: 0x188AC, symBinAddr: 0x100019F94, symSize: 0x58 }
  - { offsetInCU: 0x39DC5, offset: 0x39DC5, size: 0x8, addend: 0x0, symName: __ZNSt3__112__hash_tableINS_17__hash_value_typeI3PSKNS_12basic_stringIcNS_11char_traitsIcEENS_9allocatorIcEEEEEENS_22__unordered_map_hasherIS2_S9_NS_4hashIS2_EENS_8equal_toIS2_EELb1EEENS_21__unordered_map_equalIS2_S9_SE_SC_Lb1EEENS6_IS9_EEE17__deallocate_nodeEPNS_16__hash_node_baseIPNS_11__hash_nodeIS9_PvEEEE, symObjAddr: 0x18904, symBinAddr: 0x100019FEC, symSize: 0xA4 }
  - { offsetInCU: 0x39E2F, offset: 0x39E2F, size: 0x8, addend: 0x0, symName: __ZNSt3__110unique_ptrIA_PNS_16__hash_node_baseIPNS_11__hash_nodeINS_17__hash_value_typeI3PSKNS_12basic_stringIcNS_11char_traitsIcEENS_9allocatorIcEEEEEEPvEEEENS_25__bucket_list_deallocatorINS8_ISG_EEEEED1B7v160006Ev, symObjAddr: 0x189B8, symBinAddr: 0x10001A0A0, symSize: 0x2C }
  - { offsetInCU: 0x39E59, offset: 0x39E59, size: 0x8, addend: 0x0, symName: __ZNSt3__110unique_ptrIA_PNS_16__hash_node_baseIPNS_11__hash_nodeINS_17__hash_value_typeI3PSKNS_12basic_stringIcNS_11char_traitsIcEENS_9allocatorIcEEEEEEPvEEEENS_25__bucket_list_deallocatorINS8_ISG_EEEEED2B7v160006Ev, symObjAddr: 0x189E4, symBinAddr: 0x10001A0CC, symSize: 0x30 }
  - { offsetInCU: 0x39E83, offset: 0x39E83, size: 0x8, addend: 0x0, symName: __ZNSt3__110unique_ptrIA_PNS_16__hash_node_baseIPNS_11__hash_nodeINS_17__hash_value_typeI3PSKNS_12basic_stringIcNS_11char_traitsIcEENS_9allocatorIcEEEEEEPvEEEENS_25__bucket_list_deallocatorINS8_ISG_EEEEE5resetB7v160006EDn, symObjAddr: 0x18A14, symBinAddr: 0x10001A0FC, symSize: 0x6C }
  - { offsetInCU: 0x39EC4, offset: 0x39EC4, size: 0x8, addend: 0x0, symName: __ZNSt3__113unordered_mapI3PSKNS_12basic_stringIcNS_11char_traitsIcEENS_9allocatorIcEEEENS_4hashIS1_EENS_8equal_toIS1_EENS5_INS_4pairIKS1_S7_EEEEED2B7v160006Ev, symObjAddr: 0x18A80, symBinAddr: 0x10001A168, symSize: 0x2C }
  - { offsetInCU: 0x39EEE, offset: 0x39EEE, size: 0x8, addend: 0x0, symName: __ZNSt3__113unordered_mapINS_12basic_stringIcNS_11char_traitsIcEENS_9allocatorIcEEEE3PSKNS_4hashIS6_EENS_8equal_toIS6_EENS4_INS_4pairIKS6_S7_EEEEEC2ESt16initializer_listISE_E, symObjAddr: 0x18AAC, symBinAddr: 0x10001A194, symSize: 0x94 }
  - { offsetInCU: 0x39F29, offset: 0x39F29, size: 0x8, addend: 0x0, symName: __ZNSt3__112__hash_tableINS_17__hash_value_typeINS_12basic_stringIcNS_11char_traitsIcEENS_9allocatorIcEEEE3PSKEENS_22__unordered_map_hasherIS7_S9_NS_4hashIS7_EENS_8equal_toIS7_EELb1EEENS_21__unordered_map_equalIS7_S9_SE_SC_Lb1EEENS5_IS9_EEEC1Ev, symObjAddr: 0x18B40, symBinAddr: 0x10001A228, symSize: 0x2C }
  - { offsetInCU: 0x39F55, offset: 0x39F55, size: 0x8, addend: 0x0, symName: __ZNSt3__113unordered_mapINS_12basic_stringIcNS_11char_traitsIcEENS_9allocatorIcEEEE3PSKNS_4hashIS6_EENS_8equal_toIS6_EENS4_INS_4pairIKS6_S7_EEEEE6insertIPKSE_EEvT_SK_, symObjAddr: 0x18B7C, symBinAddr: 0x10001A264, symSize: 0x70 }
  - { offsetInCU: 0x39FA4, offset: 0x39FA4, size: 0x8, addend: 0x0, symName: __ZNKSt16initializer_listINSt3__14pairIKNS0_12basic_stringIcNS0_11char_traitsIcEENS0_9allocatorIcEEEE3PSKEEE5beginB7v160006Ev, symObjAddr: 0x18BEC, symBinAddr: 0x10001A2D4, symSize: 0x18 }
  - { offsetInCU: 0x39FCA, offset: 0x39FCA, size: 0x8, addend: 0x0, symName: __ZNKSt16initializer_listINSt3__14pairIKNS0_12basic_stringIcNS0_11char_traitsIcEENS0_9allocatorIcEEEE3PSKEEE3endB7v160006Ev, symObjAddr: 0x18C04, symBinAddr: 0x10001A2EC, symSize: 0x20 }
  - { offsetInCU: 0x39FF0, offset: 0x39FF0, size: 0x8, addend: 0x0, symName: __ZNSt3__112__hash_tableINS_17__hash_value_typeINS_12basic_stringIcNS_11char_traitsIcEENS_9allocatorIcEEEE3PSKEENS_22__unordered_map_hasherIS7_S9_NS_4hashIS7_EENS_8equal_toIS7_EELb1EEENS_21__unordered_map_equalIS7_S9_SE_SC_Lb1EEENS5_IS9_EEED1Ev, symObjAddr: 0x18C24, symBinAddr: 0x10001A30C, symSize: 0x2C }
  - { offsetInCU: 0x3A01C, offset: 0x3A01C, size: 0x8, addend: 0x0, symName: __ZNSt3__112__hash_tableINS_17__hash_value_typeINS_12basic_stringIcNS_11char_traitsIcEENS_9allocatorIcEEEE3PSKEENS_22__unordered_map_hasherIS7_S9_NS_4hashIS7_EENS_8equal_toIS7_EELb1EEENS_21__unordered_map_equalIS7_S9_SE_SC_Lb1EEENS5_IS9_EEEC2Ev, symObjAddr: 0x18C50, symBinAddr: 0x10001A338, symSize: 0x7C }
  - { offsetInCU: 0x3A048, offset: 0x3A048, size: 0x8, addend: 0x0, symName: __ZNSt3__110unique_ptrIA_PNS_16__hash_node_baseIPNS_11__hash_nodeINS_17__hash_value_typeINS_12basic_stringIcNS_11char_traitsIcEENS_9allocatorIcEEEE3PSKEEPvEEEENS_25__bucket_list_deallocatorINS7_ISG_EEEEEC1B7v160006ILb1EvEEv, symObjAddr: 0x18CCC, symBinAddr: 0x10001A3B4, symSize: 0x2C }
  - { offsetInCU: 0x3A07D, offset: 0x3A07D, size: 0x8, addend: 0x0, symName: __ZNSt3__117__compressed_pairINS_16__hash_node_baseIPNS_11__hash_nodeINS_17__hash_value_typeINS_12basic_stringIcNS_11char_traitsIcEENS_9allocatorIcEEEE3PSKEEPvEEEENS7_ISD_EEEC1B7v160006ILb1EvEEv, symObjAddr: 0x18CF8, symBinAddr: 0x10001A3E0, symSize: 0x2C }
  - { offsetInCU: 0x3A0B2, offset: 0x3A0B2, size: 0x8, addend: 0x0, symName: __ZNSt3__117__compressed_pairImNS_22__unordered_map_hasherINS_12basic_stringIcNS_11char_traitsIcEENS_9allocatorIcEEEENS_17__hash_value_typeIS7_3PSKEENS_4hashIS7_EENS_8equal_toIS7_EELb1EEEEC1B7v160006IiNS_18__default_init_tagEEEOT_OT0_, symObjAddr: 0x18D24, symBinAddr: 0x10001A40C, symSize: 0x3C }
  - { offsetInCU: 0x3A10A, offset: 0x3A10A, size: 0x8, addend: 0x0, symName: __ZNSt3__117__compressed_pairIfNS_21__unordered_map_equalINS_12basic_stringIcNS_11char_traitsIcEENS_9allocatorIcEEEENS_17__hash_value_typeIS7_3PSKEENS_8equal_toIS7_EENS_4hashIS7_EELb1EEEEC1B7v160006IfNS_18__default_init_tagEEEOT_OT0_, symObjAddr: 0x18D60, symBinAddr: 0x10001A448, symSize: 0x3C }
  - { offsetInCU: 0x3A162, offset: 0x3A162, size: 0x8, addend: 0x0, symName: __ZNSt3__110unique_ptrIA_PNS_16__hash_node_baseIPNS_11__hash_nodeINS_17__hash_value_typeINS_12basic_stringIcNS_11char_traitsIcEENS_9allocatorIcEEEE3PSKEEPvEEEENS_25__bucket_list_deallocatorINS7_ISG_EEEEEC2B7v160006ILb1EvEEv, symObjAddr: 0x18D9C, symBinAddr: 0x10001A484, symSize: 0x3C }
  - { offsetInCU: 0x3A197, offset: 0x3A197, size: 0x8, addend: 0x0, symName: __ZNSt3__117__compressed_pairIPPNS_16__hash_node_baseIPNS_11__hash_nodeINS_17__hash_value_typeINS_12basic_stringIcNS_11char_traitsIcEENS_9allocatorIcEEEE3PSKEEPvEEEENS_25__bucket_list_deallocatorINS7_ISG_EEEEEC1B7v160006INS_16__value_init_tagESN_EEOT_OT0_, symObjAddr: 0x18DD8, symBinAddr: 0x10001A4C0, symSize: 0x3C }
  - { offsetInCU: 0x3A1EF, offset: 0x3A1EF, size: 0x8, addend: 0x0, symName: __ZNSt3__117__compressed_pairIPPNS_16__hash_node_baseIPNS_11__hash_nodeINS_17__hash_value_typeINS_12basic_stringIcNS_11char_traitsIcEENS_9allocatorIcEEEE3PSKEEPvEEEENS_25__bucket_list_deallocatorINS7_ISG_EEEEEC2B7v160006INS_16__value_init_tagESN_EEOT_OT0_, symObjAddr: 0x18E14, symBinAddr: 0x10001A4FC, symSize: 0x40 }
  - { offsetInCU: 0x3A247, offset: 0x3A247, size: 0x8, addend: 0x0, symName: __ZNSt3__122__compressed_pair_elemIPPNS_16__hash_node_baseIPNS_11__hash_nodeINS_17__hash_value_typeINS_12basic_stringIcNS_11char_traitsIcEENS_9allocatorIcEEEE3PSKEEPvEEEELi0ELb0EEC2B7v160006ENS_16__value_init_tagE, symObjAddr: 0x18E54, symBinAddr: 0x10001A53C, symSize: 0x18 }
  - { offsetInCU: 0x3A27C, offset: 0x3A27C, size: 0x8, addend: 0x0, symName: __ZNSt3__122__compressed_pair_elemINS_25__bucket_list_deallocatorINS_9allocatorIPNS_16__hash_node_baseIPNS_11__hash_nodeINS_17__hash_value_typeINS_12basic_stringIcNS_11char_traitsIcEENS2_IcEEEE3PSKEEPvEEEEEEEELi1ELb0EEC2B7v160006ENS_16__value_init_tagE, symObjAddr: 0x18E6C, symBinAddr: 0x10001A554, symSize: 0x2C }
  - { offsetInCU: 0x3A2B1, offset: 0x3A2B1, size: 0x8, addend: 0x0, symName: __ZNSt3__125__bucket_list_deallocatorINS_9allocatorIPNS_16__hash_node_baseIPNS_11__hash_nodeINS_17__hash_value_typeINS_12basic_stringIcNS_11char_traitsIcEENS1_IcEEEE3PSKEEPvEEEEEEEC1B7v160006Ev, symObjAddr: 0x18E98, symBinAddr: 0x10001A580, symSize: 0x2C }
  - { offsetInCU: 0x3A2DB, offset: 0x3A2DB, size: 0x8, addend: 0x0, symName: __ZNSt3__125__bucket_list_deallocatorINS_9allocatorIPNS_16__hash_node_baseIPNS_11__hash_nodeINS_17__hash_value_typeINS_12basic_stringIcNS_11char_traitsIcEENS1_IcEEEE3PSKEEPvEEEEEEEC2B7v160006Ev, symObjAddr: 0x18EC4, symBinAddr: 0x10001A5AC, symSize: 0x40 }
  - { offsetInCU: 0x3A305, offset: 0x3A305, size: 0x8, addend: 0x0, symName: __ZNSt3__117__compressed_pairImNS_9allocatorIPNS_16__hash_node_baseIPNS_11__hash_nodeINS_17__hash_value_typeINS_12basic_stringIcNS_11char_traitsIcEENS1_IcEEEE3PSKEEPvEEEEEEEC1B7v160006IiNS_18__default_init_tagEEEOT_OT0_, symObjAddr: 0x18F04, symBinAddr: 0x10001A5EC, symSize: 0x3C }
  - { offsetInCU: 0x3A35D, offset: 0x3A35D, size: 0x8, addend: 0x0, symName: __ZNSt3__117__compressed_pairImNS_9allocatorIPNS_16__hash_node_baseIPNS_11__hash_nodeINS_17__hash_value_typeINS_12basic_stringIcNS_11char_traitsIcEENS1_IcEEEE3PSKEEPvEEEEEEEC2B7v160006IiNS_18__default_init_tagEEEOT_OT0_, symObjAddr: 0x18F40, symBinAddr: 0x10001A628, symSize: 0x40 }
  - { offsetInCU: 0x3A3B5, offset: 0x3A3B5, size: 0x8, addend: 0x0, symName: __ZNSt3__122__compressed_pair_elemINS_9allocatorIPNS_16__hash_node_baseIPNS_11__hash_nodeINS_17__hash_value_typeINS_12basic_stringIcNS_11char_traitsIcEENS1_IcEEEE3PSKEEPvEEEEEELi1ELb1EEC2B7v160006ENS_18__default_init_tagE, symObjAddr: 0x18F80, symBinAddr: 0x10001A668, symSize: 0x2C }
  - { offsetInCU: 0x3A3EA, offset: 0x3A3EA, size: 0x8, addend: 0x0, symName: __ZNSt3__19allocatorIPNS_16__hash_node_baseIPNS_11__hash_nodeINS_17__hash_value_typeINS_12basic_stringIcNS_11char_traitsIcEENS0_IcEEEE3PSKEEPvEEEEEC2B7v160006Ev, symObjAddr: 0x18FAC, symBinAddr: 0x10001A694, symSize: 0x2C }
  - { offsetInCU: 0x3A414, offset: 0x3A414, size: 0x8, addend: 0x0, symName: __ZNSt3__116__non_trivial_ifILb1ENS_9allocatorIPNS_16__hash_node_baseIPNS_11__hash_nodeINS_17__hash_value_typeINS_12basic_stringIcNS_11char_traitsIcEENS1_IcEEEE3PSKEEPvEEEEEEEC2B7v160006Ev, symObjAddr: 0x18FD8, symBinAddr: 0x10001A6C0, symSize: 0x14 }
  - { offsetInCU: 0x3A43E, offset: 0x3A43E, size: 0x8, addend: 0x0, symName: __ZNSt3__117__compressed_pairINS_16__hash_node_baseIPNS_11__hash_nodeINS_17__hash_value_typeINS_12basic_stringIcNS_11char_traitsIcEENS_9allocatorIcEEEE3PSKEEPvEEEENS7_ISD_EEEC2B7v160006ILb1EvEEv, symObjAddr: 0x18FEC, symBinAddr: 0x10001A6D4, symSize: 0x34 }
  - { offsetInCU: 0x3A473, offset: 0x3A473, size: 0x8, addend: 0x0, symName: __ZNSt3__122__compressed_pair_elemINS_16__hash_node_baseIPNS_11__hash_nodeINS_17__hash_value_typeINS_12basic_stringIcNS_11char_traitsIcEENS_9allocatorIcEEEE3PSKEEPvEEEELi0ELb0EEC2B7v160006ENS_16__value_init_tagE, symObjAddr: 0x19020, symBinAddr: 0x10001A708, symSize: 0x2C }
  - { offsetInCU: 0x3A4A8, offset: 0x3A4A8, size: 0x8, addend: 0x0, symName: __ZNSt3__122__compressed_pair_elemINS_9allocatorINS_11__hash_nodeINS_17__hash_value_typeINS_12basic_stringIcNS_11char_traitsIcEENS1_IcEEEE3PSKEEPvEEEELi1ELb1EEC2B7v160006ENS_16__value_init_tagE, symObjAddr: 0x1904C, symBinAddr: 0x10001A734, symSize: 0x2C }
  - { offsetInCU: 0x3A4DD, offset: 0x3A4DD, size: 0x8, addend: 0x0, symName: __ZNSt3__116__hash_node_baseIPNS_11__hash_nodeINS_17__hash_value_typeINS_12basic_stringIcNS_11char_traitsIcEENS_9allocatorIcEEEE3PSKEEPvEEEC1B7v160006Ev, symObjAddr: 0x19078, symBinAddr: 0x10001A760, symSize: 0x2C }
  - { offsetInCU: 0x3A507, offset: 0x3A507, size: 0x8, addend: 0x0, symName: __ZNSt3__116__hash_node_baseIPNS_11__hash_nodeINS_17__hash_value_typeINS_12basic_stringIcNS_11char_traitsIcEENS_9allocatorIcEEEE3PSKEEPvEEEC2B7v160006Ev, symObjAddr: 0x190A4, symBinAddr: 0x10001A78C, symSize: 0x18 }
  - { offsetInCU: 0x3A531, offset: 0x3A531, size: 0x8, addend: 0x0, symName: __ZNSt3__19allocatorINS_11__hash_nodeINS_17__hash_value_typeINS_12basic_stringIcNS_11char_traitsIcEENS0_IcEEEE3PSKEEPvEEEC2B7v160006Ev, symObjAddr: 0x190BC, symBinAddr: 0x10001A7A4, symSize: 0x2C }
  - { offsetInCU: 0x3A55B, offset: 0x3A55B, size: 0x8, addend: 0x0, symName: __ZNSt3__116__non_trivial_ifILb1ENS_9allocatorINS_11__hash_nodeINS_17__hash_value_typeINS_12basic_stringIcNS_11char_traitsIcEENS1_IcEEEE3PSKEEPvEEEEEC2B7v160006Ev, symObjAddr: 0x190E8, symBinAddr: 0x10001A7D0, symSize: 0x14 }
  - { offsetInCU: 0x3A585, offset: 0x3A585, size: 0x8, addend: 0x0, symName: __ZNSt3__117__compressed_pairImNS_22__unordered_map_hasherINS_12basic_stringIcNS_11char_traitsIcEENS_9allocatorIcEEEENS_17__hash_value_typeIS7_3PSKEENS_4hashIS7_EENS_8equal_toIS7_EELb1EEEEC2B7v160006IiNS_18__default_init_tagEEEOT_OT0_, symObjAddr: 0x190FC, symBinAddr: 0x10001A7E4, symSize: 0x40 }
  - { offsetInCU: 0x3A5DD, offset: 0x3A5DD, size: 0x8, addend: 0x0, symName: __ZNSt3__122__compressed_pair_elemINS_22__unordered_map_hasherINS_12basic_stringIcNS_11char_traitsIcEENS_9allocatorIcEEEENS_17__hash_value_typeIS7_3PSKEENS_4hashIS7_EENS_8equal_toIS7_EELb1EEELi1ELb1EEC2B7v160006ENS_18__default_init_tagE, symObjAddr: 0x1913C, symBinAddr: 0x10001A824, symSize: 0x2C }
  - { offsetInCU: 0x3A612, offset: 0x3A612, size: 0x8, addend: 0x0, symName: __ZNSt3__122__unordered_map_hasherINS_12basic_stringIcNS_11char_traitsIcEENS_9allocatorIcEEEENS_17__hash_value_typeIS6_3PSKEENS_4hashIS6_EENS_8equal_toIS6_EELb1EEC2B7v160006Ev, symObjAddr: 0x19168, symBinAddr: 0x10001A850, symSize: 0x14 }
  - { offsetInCU: 0x3A63C, offset: 0x3A63C, size: 0x8, addend: 0x0, symName: __ZNSt3__117__compressed_pairIfNS_21__unordered_map_equalINS_12basic_stringIcNS_11char_traitsIcEENS_9allocatorIcEEEENS_17__hash_value_typeIS7_3PSKEENS_8equal_toIS7_EENS_4hashIS7_EELb1EEEEC2B7v160006IfNS_18__default_init_tagEEEOT_OT0_, symObjAddr: 0x1917C, symBinAddr: 0x10001A864, symSize: 0x40 }
  - { offsetInCU: 0x3A694, offset: 0x3A694, size: 0x8, addend: 0x0, symName: __ZNSt3__122__compressed_pair_elemINS_21__unordered_map_equalINS_12basic_stringIcNS_11char_traitsIcEENS_9allocatorIcEEEENS_17__hash_value_typeIS7_3PSKEENS_8equal_toIS7_EENS_4hashIS7_EELb1EEELi1ELb1EEC2B7v160006ENS_18__default_init_tagE, symObjAddr: 0x191BC, symBinAddr: 0x10001A8A4, symSize: 0x2C }
  - { offsetInCU: 0x3A6C9, offset: 0x3A6C9, size: 0x8, addend: 0x0, symName: __ZNSt3__121__unordered_map_equalINS_12basic_stringIcNS_11char_traitsIcEENS_9allocatorIcEEEENS_17__hash_value_typeIS6_3PSKEENS_8equal_toIS6_EENS_4hashIS6_EELb1EEC2B7v160006Ev, symObjAddr: 0x191E8, symBinAddr: 0x10001A8D0, symSize: 0x14 }
  - { offsetInCU: 0x3A6F3, offset: 0x3A6F3, size: 0x8, addend: 0x0, symName: __ZNSt3__112__hash_tableINS_17__hash_value_typeINS_12basic_stringIcNS_11char_traitsIcEENS_9allocatorIcEEEE3PSKEENS_22__unordered_map_hasherIS7_S9_NS_4hashIS7_EENS_8equal_toIS7_EELb1EEENS_21__unordered_map_equalIS7_S9_SE_SC_Lb1EEENS5_IS9_EEE15__insert_uniqueB7v160006ERKNS_4pairIKS7_S8_EE, symObjAddr: 0x191FC, symBinAddr: 0x10001A8E4, symSize: 0x50 }
  - { offsetInCU: 0x3A728, offset: 0x3A728, size: 0x8, addend: 0x0, symName: __ZNSt3__112__hash_tableINS_17__hash_value_typeINS_12basic_stringIcNS_11char_traitsIcEENS_9allocatorIcEEEE3PSKEENS_22__unordered_map_hasherIS7_S9_NS_4hashIS7_EENS_8equal_toIS7_EELb1EEENS_21__unordered_map_equalIS7_S9_SE_SC_Lb1EEENS5_IS9_EEE25__emplace_unique_key_argsIS7_JRKNS_4pairIKS7_S8_EEEEENSL_INS_15__hash_iteratorIPNS_11__hash_nodeIS9_PvEEEEbEERKT_DpOT0_, symObjAddr: 0x1924C, symBinAddr: 0x10001A934, symSize: 0x4A4 }
  - { offsetInCU: 0x3A808, offset: 0x3A808, size: 0x8, addend: 0x0, symName: __ZNSt3__122__hash_key_value_typesINS_17__hash_value_typeINS_12basic_stringIcNS_11char_traitsIcEENS_9allocatorIcEEEE3PSKEEE9__get_keyB7v160006ERKNS_4pairIKS7_S8_EE, symObjAddr: 0x196F0, symBinAddr: 0x10001ADD8, symSize: 0x14 }
  - { offsetInCU: 0x3A82B, offset: 0x3A82B, size: 0x8, addend: 0x0, symName: __ZNSt3__112__hash_tableINS_17__hash_value_typeINS_12basic_stringIcNS_11char_traitsIcEENS_9allocatorIcEEEE3PSKEENS_22__unordered_map_hasherIS7_S9_NS_4hashIS7_EENS_8equal_toIS7_EELb1EEENS_21__unordered_map_equalIS7_S9_SE_SC_Lb1EEENS5_IS9_EEE13hash_functionB7v160006Ev, symObjAddr: 0x19704, symBinAddr: 0x10001ADEC, symSize: 0x28 }
  - { offsetInCU: 0x3A851, offset: 0x3A851, size: 0x8, addend: 0x0, symName: __ZNKSt3__122__unordered_map_hasherINS_12basic_stringIcNS_11char_traitsIcEENS_9allocatorIcEEEENS_17__hash_value_typeIS6_3PSKEENS_4hashIS6_EENS_8equal_toIS6_EELb1EEclB7v160006ERKS6_, symObjAddr: 0x1972C, symBinAddr: 0x10001AE14, symSize: 0x2C }
  - { offsetInCU: 0x3A886, offset: 0x3A886, size: 0x8, addend: 0x0, symName: __ZNKSt3__112__hash_tableINS_17__hash_value_typeINS_12basic_stringIcNS_11char_traitsIcEENS_9allocatorIcEEEE3PSKEENS_22__unordered_map_hasherIS7_S9_NS_4hashIS7_EENS_8equal_toIS7_EELb1EEENS_21__unordered_map_equalIS7_S9_SE_SC_Lb1EEENS5_IS9_EEE12bucket_countB7v160006Ev, symObjAddr: 0x19758, symBinAddr: 0x10001AE40, symSize: 0x28 }
  - { offsetInCU: 0x3A8AC, offset: 0x3A8AC, size: 0x8, addend: 0x0, symName: __ZNKSt3__110unique_ptrIA_PNS_16__hash_node_baseIPNS_11__hash_nodeINS_17__hash_value_typeINS_12basic_stringIcNS_11char_traitsIcEENS_9allocatorIcEEEE3PSKEEPvEEEENS_25__bucket_list_deallocatorINS7_ISG_EEEEEixB7v160006Em, symObjAddr: 0x19780, symBinAddr: 0x10001AE68, symSize: 0x34 }
  - { offsetInCU: 0x3A8E1, offset: 0x3A8E1, size: 0x8, addend: 0x0, symName: __ZNKSt3__116__hash_node_baseIPNS_11__hash_nodeINS_17__hash_value_typeINS_12basic_stringIcNS_11char_traitsIcEENS_9allocatorIcEEEE3PSKEEPvEEE6__hashB7v160006Ev, symObjAddr: 0x197B4, symBinAddr: 0x10001AE9C, symSize: 0x18 }
  - { offsetInCU: 0x3A907, offset: 0x3A907, size: 0x8, addend: 0x0, symName: __ZNSt3__112__hash_tableINS_17__hash_value_typeINS_12basic_stringIcNS_11char_traitsIcEENS_9allocatorIcEEEE3PSKEENS_22__unordered_map_hasherIS7_S9_NS_4hashIS7_EENS_8equal_toIS7_EELb1EEENS_21__unordered_map_equalIS7_S9_SE_SC_Lb1EEENS5_IS9_EEE6key_eqB7v160006Ev, symObjAddr: 0x197CC, symBinAddr: 0x10001AEB4, symSize: 0x28 }
  - { offsetInCU: 0x3A92D, offset: 0x3A92D, size: 0x8, addend: 0x0, symName: __ZNKSt3__121__unordered_map_equalINS_12basic_stringIcNS_11char_traitsIcEENS_9allocatorIcEEEENS_17__hash_value_typeIS6_3PSKEENS_8equal_toIS6_EENS_4hashIS6_EELb1EEclB7v160006ERKS9_RKS6_, symObjAddr: 0x197F4, symBinAddr: 0x10001AEDC, symSize: 0x48 }
  - { offsetInCU: 0x3A971, offset: 0x3A971, size: 0x8, addend: 0x0, symName: __ZNSt3__116__hash_node_baseIPNS_11__hash_nodeINS_17__hash_value_typeINS_12basic_stringIcNS_11char_traitsIcEENS_9allocatorIcEEEE3PSKEEPvEEE8__upcastB7v160006Ev, symObjAddr: 0x1983C, symBinAddr: 0x10001AF24, symSize: 0x24 }
  - { offsetInCU: 0x3A997, offset: 0x3A997, size: 0x8, addend: 0x0, symName: __ZNSt3__112__hash_tableINS_17__hash_value_typeINS_12basic_stringIcNS_11char_traitsIcEENS_9allocatorIcEEEE3PSKEENS_22__unordered_map_hasherIS7_S9_NS_4hashIS7_EENS_8equal_toIS7_EELb1EEENS_21__unordered_map_equalIS7_S9_SE_SC_Lb1EEENS5_IS9_EEE21__construct_node_hashIRKNS_4pairIKS7_S8_EEJEEENS_10unique_ptrINS_11__hash_nodeIS9_PvEENS_22__hash_node_destructorINS5_IST_EEEEEEmOT_DpOT0_, symObjAddr: 0x19860, symBinAddr: 0x10001AF48, symSize: 0x140 }
  - { offsetInCU: 0x3AA0A, offset: 0x3AA0A, size: 0x8, addend: 0x0, symName: __ZNSt3__112__hash_tableINS_17__hash_value_typeINS_12basic_stringIcNS_11char_traitsIcEENS_9allocatorIcEEEE3PSKEENS_22__unordered_map_hasherIS7_S9_NS_4hashIS7_EENS_8equal_toIS7_EELb1EEENS_21__unordered_map_equalIS7_S9_SE_SC_Lb1EEENS5_IS9_EEE4sizeB7v160006Ev, symObjAddr: 0x199A0, symBinAddr: 0x10001B088, symSize: 0x28 }
  - { offsetInCU: 0x3AA30, offset: 0x3AA30, size: 0x8, addend: 0x0, symName: __ZNSt3__112__hash_tableINS_17__hash_value_typeINS_12basic_stringIcNS_11char_traitsIcEENS_9allocatorIcEEEE3PSKEENS_22__unordered_map_hasherIS7_S9_NS_4hashIS7_EENS_8equal_toIS7_EELb1EEENS_21__unordered_map_equalIS7_S9_SE_SC_Lb1EEENS5_IS9_EEE15max_load_factorB7v160006Ev, symObjAddr: 0x199C8, symBinAddr: 0x10001B0B0, symSize: 0x28 }
  - { offsetInCU: 0x3AA56, offset: 0x3AA56, size: 0x8, addend: 0x0, symName: __ZNSt3__112__hash_tableINS_17__hash_value_typeINS_12basic_stringIcNS_11char_traitsIcEENS_9allocatorIcEEEE3PSKEENS_22__unordered_map_hasherIS7_S9_NS_4hashIS7_EENS_8equal_toIS7_EELb1EEENS_21__unordered_map_equalIS7_S9_SE_SC_Lb1EEENS5_IS9_EEE15__rehash_uniqueB7v160006Em, symObjAddr: 0x199F0, symBinAddr: 0x10001B0D8, symSize: 0x2C }
  - { offsetInCU: 0x3AA8B, offset: 0x3AA8B, size: 0x8, addend: 0x0, symName: __ZNSt3__117__compressed_pairINS_16__hash_node_baseIPNS_11__hash_nodeINS_17__hash_value_typeINS_12basic_stringIcNS_11char_traitsIcEENS_9allocatorIcEEEE3PSKEEPvEEEENS7_ISD_EEE5firstB7v160006Ev, symObjAddr: 0x19A1C, symBinAddr: 0x10001B104, symSize: 0x24 }
  - { offsetInCU: 0x3AAB1, offset: 0x3AAB1, size: 0x8, addend: 0x0, symName: __ZNSt3__116__hash_node_baseIPNS_11__hash_nodeINS_17__hash_value_typeINS_12basic_stringIcNS_11char_traitsIcEENS_9allocatorIcEEEE3PSKEEPvEEE5__ptrB7v160006Ev, symObjAddr: 0x19A40, symBinAddr: 0x10001B128, symSize: 0x24 }
  - { offsetInCU: 0x3AAD7, offset: 0x3AAD7, size: 0x8, addend: 0x0, symName: __ZNKSt3__110unique_ptrINS_11__hash_nodeINS_17__hash_value_typeINS_12basic_stringIcNS_11char_traitsIcEENS_9allocatorIcEEEE3PSKEEPvEENS_22__hash_node_destructorINS6_ISC_EEEEEptB7v160006Ev, symObjAddr: 0x19A64, symBinAddr: 0x10001B14C, symSize: 0x28 }
  - { offsetInCU: 0x3AAFD, offset: 0x3AAFD, size: 0x8, addend: 0x0, symName: __ZNKSt3__110unique_ptrINS_11__hash_nodeINS_17__hash_value_typeINS_12basic_stringIcNS_11char_traitsIcEENS_9allocatorIcEEEE3PSKEEPvEENS_22__hash_node_destructorINS6_ISC_EEEEE3getB7v160006Ev, symObjAddr: 0x19A8C, symBinAddr: 0x10001B174, symSize: 0x28 }
  - { offsetInCU: 0x3AB23, offset: 0x3AB23, size: 0x8, addend: 0x0, symName: __ZNSt3__110unique_ptrINS_11__hash_nodeINS_17__hash_value_typeINS_12basic_stringIcNS_11char_traitsIcEENS_9allocatorIcEEEE3PSKEEPvEENS_22__hash_node_destructorINS6_ISC_EEEEE7releaseB7v160006Ev, symObjAddr: 0x19AB4, symBinAddr: 0x10001B19C, symSize: 0x44 }
  - { offsetInCU: 0x3AB58, offset: 0x3AB58, size: 0x8, addend: 0x0, symName: __ZNSt3__110unique_ptrINS_11__hash_nodeINS_17__hash_value_typeINS_12basic_stringIcNS_11char_traitsIcEENS_9allocatorIcEEEE3PSKEEPvEENS_22__hash_node_destructorINS6_ISC_EEEEED1B7v160006Ev, symObjAddr: 0x19AF8, symBinAddr: 0x10001B1E0, symSize: 0x2C }
  - { offsetInCU: 0x3AB82, offset: 0x3AB82, size: 0x8, addend: 0x0, symName: __ZNSt3__115__hash_iteratorIPNS_11__hash_nodeINS_17__hash_value_typeINS_12basic_stringIcNS_11char_traitsIcEENS_9allocatorIcEEEE3PSKEEPvEEEC1B7v160006EPNS_16__hash_node_baseISD_EEPKv, symObjAddr: 0x19B24, symBinAddr: 0x10001B20C, symSize: 0x3C }
  - { offsetInCU: 0x3ABD0, offset: 0x3ABD0, size: 0x8, addend: 0x0, symName: __ZNSt3__14pairINS_15__hash_iteratorIPNS_11__hash_nodeINS_17__hash_value_typeINS_12basic_stringIcNS_11char_traitsIcEENS_9allocatorIcEEEE3PSKEEPvEEEEbEC1B7v160006ISF_RbLSC_0EEEOT_OT0_, symObjAddr: 0x19B60, symBinAddr: 0x10001B248, symSize: 0x3C }
  - { offsetInCU: 0x3AC2E, offset: 0x3AC2E, size: 0x8, addend: 0x0, symName: __ZNSt3__117__compressed_pairImNS_22__unordered_map_hasherINS_12basic_stringIcNS_11char_traitsIcEENS_9allocatorIcEEEENS_17__hash_value_typeIS7_3PSKEENS_4hashIS7_EENS_8equal_toIS7_EELb1EEEE6secondB7v160006Ev, symObjAddr: 0x19B9C, symBinAddr: 0x10001B284, symSize: 0x24 }
  - { offsetInCU: 0x3AC54, offset: 0x3AC54, size: 0x8, addend: 0x0, symName: __ZNSt3__122__compressed_pair_elemINS_22__unordered_map_hasherINS_12basic_stringIcNS_11char_traitsIcEENS_9allocatorIcEEEENS_17__hash_value_typeIS7_3PSKEENS_4hashIS7_EENS_8equal_toIS7_EELb1EEELi1ELb1EE5__getB7v160006Ev, symObjAddr: 0x19BC0, symBinAddr: 0x10001B2A8, symSize: 0x14 }
  - { offsetInCU: 0x3AC7A, offset: 0x3AC7A, size: 0x8, addend: 0x0, symName: __ZNKSt3__113__string_hashIcNS_9allocatorIcEEEclERKNS_12basic_stringIcNS_11char_traitsIcEES2_EE, symObjAddr: 0x19BD4, symBinAddr: 0x10001B2BC, symSize: 0x64 }
  - { offsetInCU: 0x3ACAF, offset: 0x3ACAF, size: 0x8, addend: 0x0, symName: __ZNSt3__121__murmur2_or_cityhashImLm64EEclEPKvm, symObjAddr: 0x19C74, symBinAddr: 0x10001B35C, symSize: 0x410 }
  - { offsetInCU: 0x3AD4A, offset: 0x3AD4A, size: 0x8, addend: 0x0, symName: __ZNSt3__121__murmur2_or_cityhashImLm64EE18__hash_len_0_to_16EPKcm, symObjAddr: 0x1A084, symBinAddr: 0x10001B76C, symSize: 0x1C0 }
  - { offsetInCU: 0x3AE23, offset: 0x3AE23, size: 0x8, addend: 0x0, symName: __ZNSt3__121__murmur2_or_cityhashImLm64EE19__hash_len_17_to_32EPKcm, symObjAddr: 0x1A244, symBinAddr: 0x10001B92C, symSize: 0x130 }
  - { offsetInCU: 0x3AE8C, offset: 0x3AE8C, size: 0x8, addend: 0x0, symName: __ZNSt3__121__murmur2_or_cityhashImLm64EE19__hash_len_33_to_64EPKcm, symObjAddr: 0x1A374, symBinAddr: 0x10001BA5C, symSize: 0x2B8 }
  - { offsetInCU: 0x3AF3E, offset: 0x3AF3E, size: 0x8, addend: 0x0, symName: __ZNSt3__121__murmur2_or_cityhashImLm64EE13__hash_len_16Emm, symObjAddr: 0x1A64C, symBinAddr: 0x10001BD34, symSize: 0x80 }
  - { offsetInCU: 0x3AF99, offset: 0x3AF99, size: 0x8, addend: 0x0, symName: __ZNSt3__121__murmur2_or_cityhashImLm64EE29__weak_hash_len_32_with_seedsEPKcmm, symObjAddr: 0x1A6CC, symBinAddr: 0x10001BDB4, symSize: 0x88 }
  - { offsetInCU: 0x3AFD8, offset: 0x3AFD8, size: 0x8, addend: 0x0, symName: __ZNSt3__121__murmur2_or_cityhashImLm64EE8__rotateEmi, symObjAddr: 0x1A754, symBinAddr: 0x10001BE3C, symSize: 0x64 }
  - { offsetInCU: 0x3B009, offset: 0x3B009, size: 0x8, addend: 0x0, symName: __ZNSt3__14pairImmEaSB7v160006EOS1_, symObjAddr: 0x1A7B8, symBinAddr: 0x10001BEA0, symSize: 0x30 }
  - { offsetInCU: 0x3B03E, offset: 0x3B03E, size: 0x8, addend: 0x0, symName: __ZNSt3__121__murmur2_or_cityhashImLm64EE11__shift_mixEm, symObjAddr: 0x1A824, symBinAddr: 0x10001BF0C, symSize: 0x1C }
  - { offsetInCU: 0x3B061, offset: 0x3B061, size: 0x8, addend: 0x0, symName: __ZNSt3__121__murmur2_or_cityhashImLm64EE22__rotate_by_at_least_1Emi, symObjAddr: 0x1A840, symBinAddr: 0x10001BF28, symSize: 0x38 }
  - { offsetInCU: 0x3B092, offset: 0x3B092, size: 0x8, addend: 0x0, symName: __ZNSt3__121__murmur2_or_cityhashImLm64EE29__weak_hash_len_32_with_seedsEmmmmmm, symObjAddr: 0x1A898, symBinAddr: 0x10001BF80, symSize: 0xD8 }
  - { offsetInCU: 0x3B10F, offset: 0x3B10F, size: 0x8, addend: 0x0, symName: __ZNSt3__14pairImmEC1B7v160006ImmLPv0EEEOT_OT0_, symObjAddr: 0x1A970, symBinAddr: 0x10001C058, symSize: 0x3C }
  - { offsetInCU: 0x3B16D, offset: 0x3B16D, size: 0x8, addend: 0x0, symName: __ZNSt3__14pairImmEC2B7v160006ImmLPv0EEEOT_OT0_, symObjAddr: 0x1A9AC, symBinAddr: 0x10001C094, symSize: 0x34 }
  - { offsetInCU: 0x3B1CB, offset: 0x3B1CB, size: 0x8, addend: 0x0, symName: __ZNKSt3__110unique_ptrIA_PNS_16__hash_node_baseIPNS_11__hash_nodeINS_17__hash_value_typeINS_12basic_stringIcNS_11char_traitsIcEENS_9allocatorIcEEEE3PSKEEPvEEEENS_25__bucket_list_deallocatorINS7_ISG_EEEEE11get_deleterB7v160006Ev, symObjAddr: 0x1A9E0, symBinAddr: 0x10001C0C8, symSize: 0x24 }
  - { offsetInCU: 0x3B1F1, offset: 0x3B1F1, size: 0x8, addend: 0x0, symName: __ZNKSt3__125__bucket_list_deallocatorINS_9allocatorIPNS_16__hash_node_baseIPNS_11__hash_nodeINS_17__hash_value_typeINS_12basic_stringIcNS_11char_traitsIcEENS1_IcEEEE3PSKEEPvEEEEEEE4sizeB7v160006Ev, symObjAddr: 0x1AA04, symBinAddr: 0x10001C0EC, symSize: 0x28 }
  - { offsetInCU: 0x3B217, offset: 0x3B217, size: 0x8, addend: 0x0, symName: __ZNKSt3__117__compressed_pairIPPNS_16__hash_node_baseIPNS_11__hash_nodeINS_17__hash_value_typeINS_12basic_stringIcNS_11char_traitsIcEENS_9allocatorIcEEEE3PSKEEPvEEEENS_25__bucket_list_deallocatorINS7_ISG_EEEEE6secondB7v160006Ev, symObjAddr: 0x1AA2C, symBinAddr: 0x10001C114, symSize: 0x28 }
  - { offsetInCU: 0x3B23D, offset: 0x3B23D, size: 0x8, addend: 0x0, symName: __ZNKSt3__122__compressed_pair_elemINS_25__bucket_list_deallocatorINS_9allocatorIPNS_16__hash_node_baseIPNS_11__hash_nodeINS_17__hash_value_typeINS_12basic_stringIcNS_11char_traitsIcEENS2_IcEEEE3PSKEEPvEEEEEEEELi1ELb0EE5__getB7v160006Ev, symObjAddr: 0x1AA54, symBinAddr: 0x10001C13C, symSize: 0x14 }
  - { offsetInCU: 0x3B263, offset: 0x3B263, size: 0x8, addend: 0x0, symName: __ZNKSt3__117__compressed_pairImNS_9allocatorIPNS_16__hash_node_baseIPNS_11__hash_nodeINS_17__hash_value_typeINS_12basic_stringIcNS_11char_traitsIcEENS1_IcEEEE3PSKEEPvEEEEEEE5firstB7v160006Ev, symObjAddr: 0x1AA68, symBinAddr: 0x10001C150, symSize: 0x24 }
  - { offsetInCU: 0x3B289, offset: 0x3B289, size: 0x8, addend: 0x0, symName: __ZNKSt3__117__compressed_pairIPPNS_16__hash_node_baseIPNS_11__hash_nodeINS_17__hash_value_typeINS_12basic_stringIcNS_11char_traitsIcEENS_9allocatorIcEEEE3PSKEEPvEEEENS_25__bucket_list_deallocatorINS7_ISG_EEEEE5firstB7v160006Ev, symObjAddr: 0x1AA8C, symBinAddr: 0x10001C174, symSize: 0x24 }
  - { offsetInCU: 0x3B2AF, offset: 0x3B2AF, size: 0x8, addend: 0x0, symName: __ZNKSt3__122__compressed_pair_elemIPPNS_16__hash_node_baseIPNS_11__hash_nodeINS_17__hash_value_typeINS_12basic_stringIcNS_11char_traitsIcEENS_9allocatorIcEEEE3PSKEEPvEEEELi0ELb0EE5__getB7v160006Ev, symObjAddr: 0x1AAB0, symBinAddr: 0x10001C198, symSize: 0x14 }
  - { offsetInCU: 0x3B2D5, offset: 0x3B2D5, size: 0x8, addend: 0x0, symName: __ZNSt3__117__compressed_pairIfNS_21__unordered_map_equalINS_12basic_stringIcNS_11char_traitsIcEENS_9allocatorIcEEEENS_17__hash_value_typeIS7_3PSKEENS_8equal_toIS7_EENS_4hashIS7_EELb1EEEE6secondB7v160006Ev, symObjAddr: 0x1AAC4, symBinAddr: 0x10001C1AC, symSize: 0x24 }
  - { offsetInCU: 0x3B2FB, offset: 0x3B2FB, size: 0x8, addend: 0x0, symName: __ZNSt3__122__compressed_pair_elemINS_21__unordered_map_equalINS_12basic_stringIcNS_11char_traitsIcEENS_9allocatorIcEEEENS_17__hash_value_typeIS7_3PSKEENS_8equal_toIS7_EENS_4hashIS7_EELb1EEELi1ELb1EE5__getB7v160006Ev, symObjAddr: 0x1AAE8, symBinAddr: 0x10001C1D0, symSize: 0x14 }
  - { offsetInCU: 0x3B321, offset: 0x3B321, size: 0x8, addend: 0x0, symName: __ZNKSt3__18equal_toINS_12basic_stringIcNS_11char_traitsIcEENS_9allocatorIcEEEEEclB7v160006ERKS6_S9_, symObjAddr: 0x1AAFC, symBinAddr: 0x10001C1E4, symSize: 0x34 }
  - { offsetInCU: 0x3B365, offset: 0x3B365, size: 0x8, addend: 0x0, symName: __ZNKSt3__117__hash_value_typeINS_12basic_stringIcNS_11char_traitsIcEENS_9allocatorIcEEEE3PSKE11__get_valueB7v160006Ev, symObjAddr: 0x1AB30, symBinAddr: 0x10001C218, symSize: 0x24 }
  - { offsetInCU: 0x3B38B, offset: 0x3B38B, size: 0x8, addend: 0x0, symName: __ZNSt3__114pointer_traitsIPNS_16__hash_node_baseIPNS_11__hash_nodeINS_17__hash_value_typeINS_12basic_stringIcNS_11char_traitsIcEENS_9allocatorIcEEEE3PSKEEPvEEEEE10pointer_toB7v160006ERSF_, symObjAddr: 0x1ACD4, symBinAddr: 0x10001C3BC, symSize: 0x14 }
  - { offsetInCU: 0x3B3AE, offset: 0x3B3AE, size: 0x8, addend: 0x0, symName: __ZNSt3__112__hash_tableINS_17__hash_value_typeINS_12basic_stringIcNS_11char_traitsIcEENS_9allocatorIcEEEE3PSKEENS_22__unordered_map_hasherIS7_S9_NS_4hashIS7_EENS_8equal_toIS7_EELb1EEENS_21__unordered_map_equalIS7_S9_SE_SC_Lb1EEENS5_IS9_EEE12__node_allocB7v160006Ev, symObjAddr: 0x1ACE8, symBinAddr: 0x10001C3D0, symSize: 0x28 }
  - { offsetInCU: 0x3B3D4, offset: 0x3B3D4, size: 0x8, addend: 0x0, symName: __ZNSt3__116allocator_traitsINS_9allocatorINS_11__hash_nodeINS_17__hash_value_typeINS_12basic_stringIcNS_11char_traitsIcEENS1_IcEEEE3PSKEEPvEEEEE8allocateB7v160006ERSD_m, symObjAddr: 0x1AD10, symBinAddr: 0x10001C3F8, symSize: 0x2C }
  - { offsetInCU: 0x3B407, offset: 0x3B407, size: 0x8, addend: 0x0, symName: __ZNSt3__122__hash_node_destructorINS_9allocatorINS_11__hash_nodeINS_17__hash_value_typeINS_12basic_stringIcNS_11char_traitsIcEENS1_IcEEEE3PSKEEPvEEEEEC1B7v160006ERSD_b, symObjAddr: 0x1AD3C, symBinAddr: 0x10001C424, symSize: 0x48 }
  - { offsetInCU: 0x3B455, offset: 0x3B455, size: 0x8, addend: 0x0, symName: __ZNSt3__110unique_ptrINS_11__hash_nodeINS_17__hash_value_typeINS_12basic_stringIcNS_11char_traitsIcEENS_9allocatorIcEEEE3PSKEEPvEENS_22__hash_node_destructorINS6_ISC_EEEEEC1B7v160006ILb1EvEEPSC_NS_16__dependent_typeINS_27__unique_ptr_deleter_sfinaeISF_EEXT_EE20__good_rval_ref_typeE, symObjAddr: 0x1AD84, symBinAddr: 0x10001C46C, symSize: 0x3C }
  - { offsetInCU: 0x3B4A6, offset: 0x3B4A6, size: 0x8, addend: 0x0, symName: __ZNSt3__116allocator_traitsINS_9allocatorINS_11__hash_nodeINS_17__hash_value_typeINS_12basic_stringIcNS_11char_traitsIcEENS1_IcEEEE3PSKEEPvEEEEE9constructB7v160006INS_4pairIKS8_S9_EEJRKSI_EvEEvRSD_PT_DpOT0_, symObjAddr: 0x1ADC0, symBinAddr: 0x10001C4A8, symSize: 0x34 }
  - { offsetInCU: 0x3B4FD, offset: 0x3B4FD, size: 0x8, addend: 0x0, symName: __ZNSt3__122__hash_key_value_typesINS_17__hash_value_typeINS_12basic_stringIcNS_11char_traitsIcEENS_9allocatorIcEEEE3PSKEEE9__get_ptrB7v160006ERS9_, symObjAddr: 0x1ADF4, symBinAddr: 0x10001C4DC, symSize: 0x24 }
  - { offsetInCU: 0x3B520, offset: 0x3B520, size: 0x8, addend: 0x0, symName: __ZNSt3__110unique_ptrINS_11__hash_nodeINS_17__hash_value_typeINS_12basic_stringIcNS_11char_traitsIcEENS_9allocatorIcEEEE3PSKEEPvEENS_22__hash_node_destructorINS6_ISC_EEEEE11get_deleterB7v160006Ev, symObjAddr: 0x1AE18, symBinAddr: 0x10001C500, symSize: 0x24 }
  - { offsetInCU: 0x3B546, offset: 0x3B546, size: 0x8, addend: 0x0, symName: __ZNSt3__117__compressed_pairINS_16__hash_node_baseIPNS_11__hash_nodeINS_17__hash_value_typeINS_12basic_stringIcNS_11char_traitsIcEENS_9allocatorIcEEEE3PSKEEPvEEEENS7_ISD_EEE6secondB7v160006Ev, symObjAddr: 0x1AE3C, symBinAddr: 0x10001C524, symSize: 0x24 }
  - { offsetInCU: 0x3B56C, offset: 0x3B56C, size: 0x8, addend: 0x0, symName: __ZNSt3__122__compressed_pair_elemINS_9allocatorINS_11__hash_nodeINS_17__hash_value_typeINS_12basic_stringIcNS_11char_traitsIcEENS1_IcEEEE3PSKEEPvEEEELi1ELb1EE5__getB7v160006Ev, symObjAddr: 0x1AE60, symBinAddr: 0x10001C548, symSize: 0x14 }
  - { offsetInCU: 0x3B592, offset: 0x3B592, size: 0x8, addend: 0x0, symName: __ZNSt3__19allocatorINS_11__hash_nodeINS_17__hash_value_typeINS_12basic_stringIcNS_11char_traitsIcEENS0_IcEEEE3PSKEEPvEEE8allocateB7v160006Em, symObjAddr: 0x1AE74, symBinAddr: 0x10001C55C, symSize: 0x5C }
  - { offsetInCU: 0x3B5D1, offset: 0x3B5D1, size: 0x8, addend: 0x0, symName: __ZNSt3__116allocator_traitsINS_9allocatorINS_11__hash_nodeINS_17__hash_value_typeINS_12basic_stringIcNS_11char_traitsIcEENS1_IcEEEE3PSKEEPvEEEEE8max_sizeB7v160006ISD_vEEmRKSD_, symObjAddr: 0x1AED0, symBinAddr: 0x10001C5B8, symSize: 0x24 }
  - { offsetInCU: 0x3B5FF, offset: 0x3B5FF, size: 0x8, addend: 0x0, symName: __ZNKSt3__19allocatorINS_11__hash_nodeINS_17__hash_value_typeINS_12basic_stringIcNS_11char_traitsIcEENS0_IcEEEE3PSKEEPvEEE8max_sizeB7v160006Ev, symObjAddr: 0x1AEF4, symBinAddr: 0x10001C5DC, symSize: 0x18 }
  - { offsetInCU: 0x3B625, offset: 0x3B625, size: 0x8, addend: 0x0, symName: __ZNSt3__122__hash_node_destructorINS_9allocatorINS_11__hash_nodeINS_17__hash_value_typeINS_12basic_stringIcNS_11char_traitsIcEENS1_IcEEEE3PSKEEPvEEEEEC2B7v160006ERSD_b, symObjAddr: 0x1AF0C, symBinAddr: 0x10001C5F4, symSize: 0x38 }
  - { offsetInCU: 0x3B66D, offset: 0x3B66D, size: 0x8, addend: 0x0, symName: __ZNSt3__110unique_ptrINS_11__hash_nodeINS_17__hash_value_typeINS_12basic_stringIcNS_11char_traitsIcEENS_9allocatorIcEEEE3PSKEEPvEENS_22__hash_node_destructorINS6_ISC_EEEEEC2B7v160006ILb1EvEEPSC_NS_16__dependent_typeINS_27__unique_ptr_deleter_sfinaeISF_EEXT_EE20__good_rval_ref_typeE, symObjAddr: 0x1AF44, symBinAddr: 0x10001C62C, symSize: 0x48 }
  - { offsetInCU: 0x3B6BE, offset: 0x3B6BE, size: 0x8, addend: 0x0, symName: __ZNSt3__117__compressed_pairIPNS_11__hash_nodeINS_17__hash_value_typeINS_12basic_stringIcNS_11char_traitsIcEENS_9allocatorIcEEEE3PSKEEPvEENS_22__hash_node_destructorINS6_ISC_EEEEEC1B7v160006IRSD_SG_EEOT_OT0_, symObjAddr: 0x1AF8C, symBinAddr: 0x10001C674, symSize: 0x3C }
  - { offsetInCU: 0x3B716, offset: 0x3B716, size: 0x8, addend: 0x0, symName: __ZNSt3__117__compressed_pairIPNS_11__hash_nodeINS_17__hash_value_typeINS_12basic_stringIcNS_11char_traitsIcEENS_9allocatorIcEEEE3PSKEEPvEENS_22__hash_node_destructorINS6_ISC_EEEEEC2B7v160006IRSD_SG_EEOT_OT0_, symObjAddr: 0x1AFC8, symBinAddr: 0x10001C6B0, symSize: 0x48 }
  - { offsetInCU: 0x3B76E, offset: 0x3B76E, size: 0x8, addend: 0x0, symName: __ZNSt3__122__compressed_pair_elemIPNS_11__hash_nodeINS_17__hash_value_typeINS_12basic_stringIcNS_11char_traitsIcEENS_9allocatorIcEEEE3PSKEEPvEELi0ELb0EEC2B7v160006IRSD_vEEOT_, symObjAddr: 0x1B010, symBinAddr: 0x10001C6F8, symSize: 0x24 }
  - { offsetInCU: 0x3B7B0, offset: 0x3B7B0, size: 0x8, addend: 0x0, symName: __ZNSt3__122__compressed_pair_elemINS_22__hash_node_destructorINS_9allocatorINS_11__hash_nodeINS_17__hash_value_typeINS_12basic_stringIcNS_11char_traitsIcEENS2_IcEEEE3PSKEEPvEEEEEELi1ELb0EEC2B7v160006ISF_vEEOT_, symObjAddr: 0x1B034, symBinAddr: 0x10001C71C, symSize: 0x24 }
  - { offsetInCU: 0x3B7F2, offset: 0x3B7F2, size: 0x8, addend: 0x0, symName: __ZNSt3__19allocatorINS_11__hash_nodeINS_17__hash_value_typeINS_12basic_stringIcNS_11char_traitsIcEENS0_IcEEEE3PSKEEPvEEE9constructB7v160006INS_4pairIKS7_S8_EEJRKSG_EEEvPT_DpOT0_, symObjAddr: 0x1B058, symBinAddr: 0x10001C740, symSize: 0x30 }
  - { offsetInCU: 0x3B848, offset: 0x3B848, size: 0x8, addend: 0x0, symName: __ZNSt3__14pairIKNS_12basic_stringIcNS_11char_traitsIcEENS_9allocatorIcEEEE3PSKEC1ERKS9_, symObjAddr: 0x1B088, symBinAddr: 0x10001C770, symSize: 0x34 }
  - { offsetInCU: 0x3B87D, offset: 0x3B87D, size: 0x8, addend: 0x0, symName: __ZNSt3__14pairIKNS_12basic_stringIcNS_11char_traitsIcEENS_9allocatorIcEEEE3PSKEC2ERKS9_, symObjAddr: 0x1B0BC, symBinAddr: 0x10001C7A4, symSize: 0x40 }
  - { offsetInCU: 0x3B8B2, offset: 0x3B8B2, size: 0x8, addend: 0x0, symName: __ZNSt3__117__hash_value_typeINS_12basic_stringIcNS_11char_traitsIcEENS_9allocatorIcEEEE3PSKE11__get_valueB7v160006Ev, symObjAddr: 0x1B0FC, symBinAddr: 0x10001C7E4, symSize: 0x24 }
  - { offsetInCU: 0x3B8D8, offset: 0x3B8D8, size: 0x8, addend: 0x0, symName: __ZNSt3__117__compressed_pairIPNS_11__hash_nodeINS_17__hash_value_typeINS_12basic_stringIcNS_11char_traitsIcEENS_9allocatorIcEEEE3PSKEEPvEENS_22__hash_node_destructorINS6_ISC_EEEEE6secondB7v160006Ev, symObjAddr: 0x1B158, symBinAddr: 0x10001C840, symSize: 0x28 }
  - { offsetInCU: 0x3B8FE, offset: 0x3B8FE, size: 0x8, addend: 0x0, symName: __ZNSt3__122__compressed_pair_elemINS_22__hash_node_destructorINS_9allocatorINS_11__hash_nodeINS_17__hash_value_typeINS_12basic_stringIcNS_11char_traitsIcEENS2_IcEEEE3PSKEEPvEEEEEELi1ELb0EE5__getB7v160006Ev, symObjAddr: 0x1B180, symBinAddr: 0x10001C868, symSize: 0x14 }
  - { offsetInCU: 0x3B924, offset: 0x3B924, size: 0x8, addend: 0x0, symName: __ZNSt3__117__compressed_pairImNS_22__unordered_map_hasherINS_12basic_stringIcNS_11char_traitsIcEENS_9allocatorIcEEEENS_17__hash_value_typeIS7_3PSKEENS_4hashIS7_EENS_8equal_toIS7_EELb1EEEE5firstB7v160006Ev, symObjAddr: 0x1B194, symBinAddr: 0x10001C87C, symSize: 0x24 }
  - { offsetInCU: 0x3B94A, offset: 0x3B94A, size: 0x8, addend: 0x0, symName: __ZNSt3__117__compressed_pairIfNS_21__unordered_map_equalINS_12basic_stringIcNS_11char_traitsIcEENS_9allocatorIcEEEENS_17__hash_value_typeIS7_3PSKEENS_8equal_toIS7_EENS_4hashIS7_EELb1EEEE5firstB7v160006Ev, symObjAddr: 0x1B1B8, symBinAddr: 0x10001C8A0, symSize: 0x24 }
  - { offsetInCU: 0x3B970, offset: 0x3B970, size: 0x8, addend: 0x0, symName: __ZNSt3__112__hash_tableINS_17__hash_value_typeINS_12basic_stringIcNS_11char_traitsIcEENS_9allocatorIcEEEE3PSKEENS_22__unordered_map_hasherIS7_S9_NS_4hashIS7_EENS_8equal_toIS7_EELb1EEENS_21__unordered_map_equalIS7_S9_SE_SC_Lb1EEENS5_IS9_EEE8__rehashILb1EEEvm, symObjAddr: 0x1B1DC, symBinAddr: 0x10001C8C4, symSize: 0x1A8 }
  - { offsetInCU: 0x3B9C0, offset: 0x3B9C0, size: 0x8, addend: 0x0, symName: __ZNSt3__112__hash_tableINS_17__hash_value_typeINS_12basic_stringIcNS_11char_traitsIcEENS_9allocatorIcEEEE3PSKEENS_22__unordered_map_hasherIS7_S9_NS_4hashIS7_EENS_8equal_toIS7_EELb1EEENS_21__unordered_map_equalIS7_S9_SE_SC_Lb1EEENS5_IS9_EEE11__do_rehashILb1EEEvm, symObjAddr: 0x1B384, symBinAddr: 0x10001CA6C, symSize: 0x290 }
  - { offsetInCU: 0x3BAA3, offset: 0x3BAA3, size: 0x8, addend: 0x0, symName: __ZNSt3__110unique_ptrIA_PNS_16__hash_node_baseIPNS_11__hash_nodeINS_17__hash_value_typeINS_12basic_stringIcNS_11char_traitsIcEENS_9allocatorIcEEEE3PSKEEPvEEEENS_25__bucket_list_deallocatorINS7_ISG_EEEEE11get_deleterB7v160006Ev, symObjAddr: 0x1B624, symBinAddr: 0x10001CD0C, symSize: 0x24 }
  - { offsetInCU: 0x3BAC9, offset: 0x3BAC9, size: 0x8, addend: 0x0, symName: __ZNSt3__125__bucket_list_deallocatorINS_9allocatorIPNS_16__hash_node_baseIPNS_11__hash_nodeINS_17__hash_value_typeINS_12basic_stringIcNS_11char_traitsIcEENS1_IcEEEE3PSKEEPvEEEEEEE7__allocB7v160006Ev, symObjAddr: 0x1B648, symBinAddr: 0x10001CD30, symSize: 0x24 }
  - { offsetInCU: 0x3BAEF, offset: 0x3BAEF, size: 0x8, addend: 0x0, symName: __ZNSt3__110unique_ptrIA_PNS_16__hash_node_baseIPNS_11__hash_nodeINS_17__hash_value_typeINS_12basic_stringIcNS_11char_traitsIcEENS_9allocatorIcEEEE3PSKEEPvEEEENS_25__bucket_list_deallocatorINS7_ISG_EEEEE5resetB7v160006IPSG_EENS_9enable_ifIXsr28_CheckArrayPointerConversionIT_EE5valueEvE4typeESP_, symObjAddr: 0x1B66C, symBinAddr: 0x10001CD54, symSize: 0x78 }
  - { offsetInCU: 0x3BB3C, offset: 0x3BB3C, size: 0x8, addend: 0x0, symName: __ZNSt3__116allocator_traitsINS_9allocatorIPNS_16__hash_node_baseIPNS_11__hash_nodeINS_17__hash_value_typeINS_12basic_stringIcNS_11char_traitsIcEENS1_IcEEEE3PSKEEPvEEEEEEE8allocateB7v160006ERSH_m, symObjAddr: 0x1B6E4, symBinAddr: 0x10001CDCC, symSize: 0x2C }
  - { offsetInCU: 0x3BB6F, offset: 0x3BB6F, size: 0x8, addend: 0x0, symName: __ZNSt3__125__bucket_list_deallocatorINS_9allocatorIPNS_16__hash_node_baseIPNS_11__hash_nodeINS_17__hash_value_typeINS_12basic_stringIcNS_11char_traitsIcEENS1_IcEEEE3PSKEEPvEEEEEEE4sizeB7v160006Ev, symObjAddr: 0x1B710, symBinAddr: 0x10001CDF8, symSize: 0x24 }
  - { offsetInCU: 0x3BB95, offset: 0x3BB95, size: 0x8, addend: 0x0, symName: __ZNSt3__117__compressed_pairIPPNS_16__hash_node_baseIPNS_11__hash_nodeINS_17__hash_value_typeINS_12basic_stringIcNS_11char_traitsIcEENS_9allocatorIcEEEE3PSKEEPvEEEENS_25__bucket_list_deallocatorINS7_ISG_EEEEE6secondB7v160006Ev, symObjAddr: 0x1B734, symBinAddr: 0x10001CE1C, symSize: 0x28 }
  - { offsetInCU: 0x3BBBB, offset: 0x3BBBB, size: 0x8, addend: 0x0, symName: __ZNSt3__122__compressed_pair_elemINS_25__bucket_list_deallocatorINS_9allocatorIPNS_16__hash_node_baseIPNS_11__hash_nodeINS_17__hash_value_typeINS_12basic_stringIcNS_11char_traitsIcEENS2_IcEEEE3PSKEEPvEEEEEEEELi1ELb0EE5__getB7v160006Ev, symObjAddr: 0x1B75C, symBinAddr: 0x10001CE44, symSize: 0x14 }
  - { offsetInCU: 0x3BBE1, offset: 0x3BBE1, size: 0x8, addend: 0x0, symName: __ZNSt3__117__compressed_pairImNS_9allocatorIPNS_16__hash_node_baseIPNS_11__hash_nodeINS_17__hash_value_typeINS_12basic_stringIcNS_11char_traitsIcEENS1_IcEEEE3PSKEEPvEEEEEEE6secondB7v160006Ev, symObjAddr: 0x1B770, symBinAddr: 0x10001CE58, symSize: 0x24 }
  - { offsetInCU: 0x3BC07, offset: 0x3BC07, size: 0x8, addend: 0x0, symName: __ZNSt3__122__compressed_pair_elemINS_9allocatorIPNS_16__hash_node_baseIPNS_11__hash_nodeINS_17__hash_value_typeINS_12basic_stringIcNS_11char_traitsIcEENS1_IcEEEE3PSKEEPvEEEEEELi1ELb1EE5__getB7v160006Ev, symObjAddr: 0x1B794, symBinAddr: 0x10001CE7C, symSize: 0x14 }
  - { offsetInCU: 0x3BC2D, offset: 0x3BC2D, size: 0x8, addend: 0x0, symName: __ZNSt3__117__compressed_pairIPPNS_16__hash_node_baseIPNS_11__hash_nodeINS_17__hash_value_typeINS_12basic_stringIcNS_11char_traitsIcEENS_9allocatorIcEEEE3PSKEEPvEEEENS_25__bucket_list_deallocatorINS7_ISG_EEEEE5firstB7v160006Ev, symObjAddr: 0x1B7A8, symBinAddr: 0x10001CE90, symSize: 0x24 }
  - { offsetInCU: 0x3BC53, offset: 0x3BC53, size: 0x8, addend: 0x0, symName: __ZNSt3__125__bucket_list_deallocatorINS_9allocatorIPNS_16__hash_node_baseIPNS_11__hash_nodeINS_17__hash_value_typeINS_12basic_stringIcNS_11char_traitsIcEENS1_IcEEEE3PSKEEPvEEEEEEEclB7v160006EPSG_, symObjAddr: 0x1B7CC, symBinAddr: 0x10001CEB4, symSize: 0x58 }
  - { offsetInCU: 0x3BC88, offset: 0x3BC88, size: 0x8, addend: 0x0, symName: __ZNSt3__122__compressed_pair_elemIPPNS_16__hash_node_baseIPNS_11__hash_nodeINS_17__hash_value_typeINS_12basic_stringIcNS_11char_traitsIcEENS_9allocatorIcEEEE3PSKEEPvEEEELi0ELb0EE5__getB7v160006Ev, symObjAddr: 0x1B824, symBinAddr: 0x10001CF0C, symSize: 0x14 }
  - { offsetInCU: 0x3BCAE, offset: 0x3BCAE, size: 0x8, addend: 0x0, symName: __ZNSt3__116allocator_traitsINS_9allocatorIPNS_16__hash_node_baseIPNS_11__hash_nodeINS_17__hash_value_typeINS_12basic_stringIcNS_11char_traitsIcEENS1_IcEEEE3PSKEEPvEEEEEEE10deallocateB7v160006ERSH_PSG_m, symObjAddr: 0x1B838, symBinAddr: 0x10001CF20, symSize: 0x34 }
  - { offsetInCU: 0x3BCF0, offset: 0x3BCF0, size: 0x8, addend: 0x0, symName: __ZNSt3__19allocatorIPNS_16__hash_node_baseIPNS_11__hash_nodeINS_17__hash_value_typeINS_12basic_stringIcNS_11char_traitsIcEENS0_IcEEEE3PSKEEPvEEEEE10deallocateB7v160006EPSF_m, symObjAddr: 0x1B86C, symBinAddr: 0x10001CF54, symSize: 0x40 }
  - { offsetInCU: 0x3BD32, offset: 0x3BD32, size: 0x8, addend: 0x0, symName: __ZNSt3__19allocatorIPNS_16__hash_node_baseIPNS_11__hash_nodeINS_17__hash_value_typeINS_12basic_stringIcNS_11char_traitsIcEENS0_IcEEEE3PSKEEPvEEEEE8allocateB7v160006Em, symObjAddr: 0x1B8AC, symBinAddr: 0x10001CF94, symSize: 0x58 }
  - { offsetInCU: 0x3BD71, offset: 0x3BD71, size: 0x8, addend: 0x0, symName: __ZNSt3__116allocator_traitsINS_9allocatorIPNS_16__hash_node_baseIPNS_11__hash_nodeINS_17__hash_value_typeINS_12basic_stringIcNS_11char_traitsIcEENS1_IcEEEE3PSKEEPvEEEEEEE8max_sizeB7v160006ISH_vEEmRKSH_, symObjAddr: 0x1B904, symBinAddr: 0x10001CFEC, symSize: 0x24 }
  - { offsetInCU: 0x3BD9F, offset: 0x3BD9F, size: 0x8, addend: 0x0, symName: __ZNKSt3__19allocatorIPNS_16__hash_node_baseIPNS_11__hash_nodeINS_17__hash_value_typeINS_12basic_stringIcNS_11char_traitsIcEENS0_IcEEEE3PSKEEPvEEEEE8max_sizeB7v160006Ev, symObjAddr: 0x1B928, symBinAddr: 0x10001D010, symSize: 0x14 }
  - { offsetInCU: 0x3BDC5, offset: 0x3BDC5, size: 0x8, addend: 0x0, symName: __ZNSt3__117__compressed_pairImNS_9allocatorIPNS_16__hash_node_baseIPNS_11__hash_nodeINS_17__hash_value_typeINS_12basic_stringIcNS_11char_traitsIcEENS1_IcEEEE3PSKEEPvEEEEEEE5firstB7v160006Ev, symObjAddr: 0x1B93C, symBinAddr: 0x10001D024, symSize: 0x24 }
  - { offsetInCU: 0x3BDEB, offset: 0x3BDEB, size: 0x8, addend: 0x0, symName: __ZNSt3__122__compressed_pair_elemINS_16__hash_node_baseIPNS_11__hash_nodeINS_17__hash_value_typeINS_12basic_stringIcNS_11char_traitsIcEENS_9allocatorIcEEEE3PSKEEPvEEEELi0ELb0EE5__getB7v160006Ev, symObjAddr: 0x1B960, symBinAddr: 0x10001D048, symSize: 0x14 }
  - { offsetInCU: 0x3BE11, offset: 0x3BE11, size: 0x8, addend: 0x0, symName: __ZNKSt3__117__compressed_pairIPNS_11__hash_nodeINS_17__hash_value_typeINS_12basic_stringIcNS_11char_traitsIcEENS_9allocatorIcEEEE3PSKEEPvEENS_22__hash_node_destructorINS6_ISC_EEEEE5firstB7v160006Ev, symObjAddr: 0x1B974, symBinAddr: 0x10001D05C, symSize: 0x24 }
  - { offsetInCU: 0x3BE37, offset: 0x3BE37, size: 0x8, addend: 0x0, symName: __ZNKSt3__122__compressed_pair_elemIPNS_11__hash_nodeINS_17__hash_value_typeINS_12basic_stringIcNS_11char_traitsIcEENS_9allocatorIcEEEE3PSKEEPvEELi0ELb0EE5__getB7v160006Ev, symObjAddr: 0x1B998, symBinAddr: 0x10001D080, symSize: 0x14 }
  - { offsetInCU: 0x3BE5D, offset: 0x3BE5D, size: 0x8, addend: 0x0, symName: __ZNSt3__117__compressed_pairIPNS_11__hash_nodeINS_17__hash_value_typeINS_12basic_stringIcNS_11char_traitsIcEENS_9allocatorIcEEEE3PSKEEPvEENS_22__hash_node_destructorINS6_ISC_EEEEE5firstB7v160006Ev, symObjAddr: 0x1B9AC, symBinAddr: 0x10001D094, symSize: 0x24 }
  - { offsetInCU: 0x3BE83, offset: 0x3BE83, size: 0x8, addend: 0x0, symName: __ZNSt3__122__compressed_pair_elemIPNS_11__hash_nodeINS_17__hash_value_typeINS_12basic_stringIcNS_11char_traitsIcEENS_9allocatorIcEEEE3PSKEEPvEELi0ELb0EE5__getB7v160006Ev, symObjAddr: 0x1B9D0, symBinAddr: 0x10001D0B8, symSize: 0x14 }
  - { offsetInCU: 0x3BEA9, offset: 0x3BEA9, size: 0x8, addend: 0x0, symName: __ZNSt3__110unique_ptrINS_11__hash_nodeINS_17__hash_value_typeINS_12basic_stringIcNS_11char_traitsIcEENS_9allocatorIcEEEE3PSKEEPvEENS_22__hash_node_destructorINS6_ISC_EEEEED2B7v160006Ev, symObjAddr: 0x1B9E4, symBinAddr: 0x10001D0CC, symSize: 0x30 }
  - { offsetInCU: 0x3BED3, offset: 0x3BED3, size: 0x8, addend: 0x0, symName: __ZNSt3__110unique_ptrINS_11__hash_nodeINS_17__hash_value_typeINS_12basic_stringIcNS_11char_traitsIcEENS_9allocatorIcEEEE3PSKEEPvEENS_22__hash_node_destructorINS6_ISC_EEEEE5resetB7v160006EPSC_, symObjAddr: 0x1BA14, symBinAddr: 0x10001D0FC, symSize: 0x78 }
  - { offsetInCU: 0x3BF17, offset: 0x3BF17, size: 0x8, addend: 0x0, symName: __ZNSt3__122__hash_node_destructorINS_9allocatorINS_11__hash_nodeINS_17__hash_value_typeINS_12basic_stringIcNS_11char_traitsIcEENS1_IcEEEE3PSKEEPvEEEEEclB7v160006EPSC_, symObjAddr: 0x1BA8C, symBinAddr: 0x10001D174, symSize: 0x98 }
  - { offsetInCU: 0x3BF4C, offset: 0x3BF4C, size: 0x8, addend: 0x0, symName: __ZNSt3__116allocator_traitsINS_9allocatorINS_11__hash_nodeINS_17__hash_value_typeINS_12basic_stringIcNS_11char_traitsIcEENS1_IcEEEE3PSKEEPvEEEEE7destroyB7v160006INS_4pairIKS8_S9_EEvvEEvRSD_PT_, symObjAddr: 0x1BB24, symBinAddr: 0x10001D20C, symSize: 0x28 }
  - { offsetInCU: 0x3BF87, offset: 0x3BF87, size: 0x8, addend: 0x0, symName: __ZNSt3__116allocator_traitsINS_9allocatorINS_11__hash_nodeINS_17__hash_value_typeINS_12basic_stringIcNS_11char_traitsIcEENS1_IcEEEE3PSKEEPvEEEEE10deallocateB7v160006ERSD_PSC_m, symObjAddr: 0x1BB4C, symBinAddr: 0x10001D234, symSize: 0x34 }
  - { offsetInCU: 0x3BFC9, offset: 0x3BFC9, size: 0x8, addend: 0x0, symName: __ZNSt3__19allocatorINS_11__hash_nodeINS_17__hash_value_typeINS_12basic_stringIcNS_11char_traitsIcEENS0_IcEEEE3PSKEEPvEEE10deallocateB7v160006EPSB_m, symObjAddr: 0x1BB80, symBinAddr: 0x10001D268, symSize: 0x44 }
  - { offsetInCU: 0x3C00B, offset: 0x3C00B, size: 0x8, addend: 0x0, symName: __ZNSt3__115__hash_iteratorIPNS_11__hash_nodeINS_17__hash_value_typeINS_12basic_stringIcNS_11char_traitsIcEENS_9allocatorIcEEEE3PSKEEPvEEEC2B7v160006EPNS_16__hash_node_baseISD_EEPKv, symObjAddr: 0x1BBC4, symBinAddr: 0x10001D2AC, symSize: 0x24 }
  - { offsetInCU: 0x3C053, offset: 0x3C053, size: 0x8, addend: 0x0, symName: __ZNSt3__14pairINS_15__hash_iteratorIPNS_11__hash_nodeINS_17__hash_value_typeINS_12basic_stringIcNS_11char_traitsIcEENS_9allocatorIcEEEE3PSKEEPvEEEEbEC2B7v160006ISF_RbLSC_0EEEOT_OT0_, symObjAddr: 0x1BBE8, symBinAddr: 0x10001D2D0, symSize: 0x38 }
  - { offsetInCU: 0x3C0B1, offset: 0x3C0B1, size: 0x8, addend: 0x0, symName: __ZNSt3__112__hash_tableINS_17__hash_value_typeINS_12basic_stringIcNS_11char_traitsIcEENS_9allocatorIcEEEE3PSKEENS_22__unordered_map_hasherIS7_S9_NS_4hashIS7_EENS_8equal_toIS7_EELb1EEENS_21__unordered_map_equalIS7_S9_SE_SC_Lb1EEENS5_IS9_EEED2Ev, symObjAddr: 0x1BC20, symBinAddr: 0x10001D308, symSize: 0x58 }
  - { offsetInCU: 0x3C0DD, offset: 0x3C0DD, size: 0x8, addend: 0x0, symName: __ZNSt3__112__hash_tableINS_17__hash_value_typeINS_12basic_stringIcNS_11char_traitsIcEENS_9allocatorIcEEEE3PSKEENS_22__unordered_map_hasherIS7_S9_NS_4hashIS7_EENS_8equal_toIS7_EELb1EEENS_21__unordered_map_equalIS7_S9_SE_SC_Lb1EEENS5_IS9_EEE17__deallocate_nodeEPNS_16__hash_node_baseIPNS_11__hash_nodeIS9_PvEEEE, symObjAddr: 0x1BC78, symBinAddr: 0x10001D360, symSize: 0xA4 }
  - { offsetInCU: 0x3C147, offset: 0x3C147, size: 0x8, addend: 0x0, symName: __ZNSt3__110unique_ptrIA_PNS_16__hash_node_baseIPNS_11__hash_nodeINS_17__hash_value_typeINS_12basic_stringIcNS_11char_traitsIcEENS_9allocatorIcEEEE3PSKEEPvEEEENS_25__bucket_list_deallocatorINS7_ISG_EEEEED1B7v160006Ev, symObjAddr: 0x1BD2C, symBinAddr: 0x10001D414, symSize: 0x2C }
  - { offsetInCU: 0x3C171, offset: 0x3C171, size: 0x8, addend: 0x0, symName: __ZNSt3__110unique_ptrIA_PNS_16__hash_node_baseIPNS_11__hash_nodeINS_17__hash_value_typeINS_12basic_stringIcNS_11char_traitsIcEENS_9allocatorIcEEEE3PSKEEPvEEEENS_25__bucket_list_deallocatorINS7_ISG_EEEEED2B7v160006Ev, symObjAddr: 0x1BD58, symBinAddr: 0x10001D440, symSize: 0x30 }
  - { offsetInCU: 0x3C19B, offset: 0x3C19B, size: 0x8, addend: 0x0, symName: __ZNSt3__110unique_ptrIA_PNS_16__hash_node_baseIPNS_11__hash_nodeINS_17__hash_value_typeINS_12basic_stringIcNS_11char_traitsIcEENS_9allocatorIcEEEE3PSKEEPvEEEENS_25__bucket_list_deallocatorINS7_ISG_EEEEE5resetB7v160006EDn, symObjAddr: 0x1BD88, symBinAddr: 0x10001D470, symSize: 0x6C }
  - { offsetInCU: 0x3C1DC, offset: 0x3C1DC, size: 0x8, addend: 0x0, symName: __ZNSt3__113unordered_mapINS_12basic_stringIcNS_11char_traitsIcEENS_9allocatorIcEEEE3PSKNS_4hashIS6_EENS_8equal_toIS6_EENS4_INS_4pairIKS6_S7_EEEEED2B7v160006Ev, symObjAddr: 0x1BDF4, symBinAddr: 0x10001D4DC, symSize: 0x2C }
  - { offsetInCU: 0x3C206, offset: 0x3C206, size: 0x8, addend: 0x0, symName: __ZNKSt3__112__hash_tableINS_17__hash_value_typeI3PSKNS_12basic_stringIcNS_11char_traitsIcEENS_9allocatorIcEEEEEENS_22__unordered_map_hasherIS2_S9_NS_4hashIS2_EENS_8equal_toIS2_EELb1EEENS_21__unordered_map_equalIS2_S9_SE_SC_Lb1EEENS6_IS9_EEE4findIS2_EENS_21__hash_const_iteratorIPNS_11__hash_nodeIS9_PvEEEERKT_, symObjAddr: 0x1BE20, symBinAddr: 0x10001D508, symSize: 0x1BC }
  - { offsetInCU: 0x3C290, offset: 0x3C290, size: 0x8, addend: 0x0, symName: __ZNSt3__125__hash_map_const_iteratorINS_21__hash_const_iteratorIPNS_11__hash_nodeINS_17__hash_value_typeI3PSKNS_12basic_stringIcNS_11char_traitsIcEENS_9allocatorIcEEEEEEPvEEEEEC1B7v160006ESF_, symObjAddr: 0x1BFDC, symBinAddr: 0x10001D6C4, symSize: 0x34 }
  - { offsetInCU: 0x3C2C9, offset: 0x3C2C9, size: 0x8, addend: 0x0, symName: __ZNKSt3__112__hash_tableINS_17__hash_value_typeI3PSKNS_12basic_stringIcNS_11char_traitsIcEENS_9allocatorIcEEEEEENS_22__unordered_map_hasherIS2_S9_NS_4hashIS2_EENS_8equal_toIS2_EELb1EEENS_21__unordered_map_equalIS2_S9_SE_SC_Lb1EEENS6_IS9_EEE13hash_functionB7v160006Ev, symObjAddr: 0x1C010, symBinAddr: 0x10001D6F8, symSize: 0x28 }
  - { offsetInCU: 0x3C2EF, offset: 0x3C2EF, size: 0x8, addend: 0x0, symName: __ZNKSt3__112__hash_tableINS_17__hash_value_typeI3PSKNS_12basic_stringIcNS_11char_traitsIcEENS_9allocatorIcEEEEEENS_22__unordered_map_hasherIS2_S9_NS_4hashIS2_EENS_8equal_toIS2_EELb1EEENS_21__unordered_map_equalIS2_S9_SE_SC_Lb1EEENS6_IS9_EEE6key_eqB7v160006Ev, symObjAddr: 0x1C038, symBinAddr: 0x10001D720, symSize: 0x28 }
  - { offsetInCU: 0x3C315, offset: 0x3C315, size: 0x8, addend: 0x0, symName: __ZNSt3__121__hash_const_iteratorIPNS_11__hash_nodeINS_17__hash_value_typeI3PSKNS_12basic_stringIcNS_11char_traitsIcEENS_9allocatorIcEEEEEEPvEEEC1B7v160006EPNS_16__hash_node_baseISD_EEPKv, symObjAddr: 0x1C060, symBinAddr: 0x10001D748, symSize: 0x3C }
  - { offsetInCU: 0x3C35D, offset: 0x3C35D, size: 0x8, addend: 0x0, symName: __ZNKSt3__112__hash_tableINS_17__hash_value_typeI3PSKNS_12basic_stringIcNS_11char_traitsIcEENS_9allocatorIcEEEEEENS_22__unordered_map_hasherIS2_S9_NS_4hashIS2_EENS_8equal_toIS2_EELb1EEENS_21__unordered_map_equalIS2_S9_SE_SC_Lb1EEENS6_IS9_EEE3endEv, symObjAddr: 0x1C09C, symBinAddr: 0x10001D784, symSize: 0x30 }
  - { offsetInCU: 0x3C385, offset: 0x3C385, size: 0x8, addend: 0x0, symName: __ZNKSt3__117__compressed_pairImNS_22__unordered_map_hasherI3PSKNS_17__hash_value_typeIS2_NS_12basic_stringIcNS_11char_traitsIcEENS_9allocatorIcEEEEEENS_4hashIS2_EENS_8equal_toIS2_EELb1EEEE6secondB7v160006Ev, symObjAddr: 0x1C0CC, symBinAddr: 0x10001D7B4, symSize: 0x24 }
  - { offsetInCU: 0x3C3AB, offset: 0x3C3AB, size: 0x8, addend: 0x0, symName: __ZNKSt3__122__compressed_pair_elemINS_22__unordered_map_hasherI3PSKNS_17__hash_value_typeIS2_NS_12basic_stringIcNS_11char_traitsIcEENS_9allocatorIcEEEEEENS_4hashIS2_EENS_8equal_toIS2_EELb1EEELi1ELb1EE5__getB7v160006Ev, symObjAddr: 0x1C0F0, symBinAddr: 0x10001D7D8, symSize: 0x14 }
  - { offsetInCU: 0x3C3D1, offset: 0x3C3D1, size: 0x8, addend: 0x0, symName: __ZNKSt3__117__compressed_pairIfNS_21__unordered_map_equalI3PSKNS_17__hash_value_typeIS2_NS_12basic_stringIcNS_11char_traitsIcEENS_9allocatorIcEEEEEENS_8equal_toIS2_EENS_4hashIS2_EELb1EEEE6secondB7v160006Ev, symObjAddr: 0x1C104, symBinAddr: 0x10001D7EC, symSize: 0x24 }
  - { offsetInCU: 0x3C3F7, offset: 0x3C3F7, size: 0x8, addend: 0x0, symName: __ZNKSt3__122__compressed_pair_elemINS_21__unordered_map_equalI3PSKNS_17__hash_value_typeIS2_NS_12basic_stringIcNS_11char_traitsIcEENS_9allocatorIcEEEEEENS_8equal_toIS2_EENS_4hashIS2_EELb1EEELi1ELb1EE5__getB7v160006Ev, symObjAddr: 0x1C128, symBinAddr: 0x10001D810, symSize: 0x14 }
  - { offsetInCU: 0x3C41D, offset: 0x3C41D, size: 0x8, addend: 0x0, symName: __ZNSt3__121__hash_const_iteratorIPNS_11__hash_nodeINS_17__hash_value_typeI3PSKNS_12basic_stringIcNS_11char_traitsIcEENS_9allocatorIcEEEEEEPvEEEC2B7v160006EPNS_16__hash_node_baseISD_EEPKv, symObjAddr: 0x1C13C, symBinAddr: 0x10001D824, symSize: 0x24 }
  - { offsetInCU: 0x3C465, offset: 0x3C465, size: 0x8, addend: 0x0, symName: __ZNSt3__125__hash_map_const_iteratorINS_21__hash_const_iteratorIPNS_11__hash_nodeINS_17__hash_value_typeI3PSKNS_12basic_stringIcNS_11char_traitsIcEENS_9allocatorIcEEEEEEPvEEEEEC2B7v160006ESF_, symObjAddr: 0x1C160, symBinAddr: 0x10001D848, symSize: 0x20 }
  - { offsetInCU: 0x3C49E, offset: 0x3C49E, size: 0x8, addend: 0x0, symName: __ZNSt3__114pointer_traitsIPKNS_4pairIK3PSKNS_12basic_stringIcNS_11char_traitsIcEENS_9allocatorIcEEEEEEE10pointer_toB7v160006ERSB_, symObjAddr: 0x1C1E4, symBinAddr: 0x10001D8CC, symSize: 0x14 }
  - { offsetInCU: 0x3C4C1, offset: 0x3C4C1, size: 0x8, addend: 0x0, symName: __ZNKSt3__121__hash_const_iteratorIPNS_11__hash_nodeINS_17__hash_value_typeI3PSKNS_12basic_stringIcNS_11char_traitsIcEENS_9allocatorIcEEEEEEPvEEEptB7v160006Ev, symObjAddr: 0x1C1F8, symBinAddr: 0x10001D8E0, symSize: 0x30 }
  - { offsetInCU: 0x3C4E7, offset: 0x3C4E7, size: 0x8, addend: 0x0, symName: __ZNSt3__114pointer_traitsIPKNS_17__hash_value_typeI3PSKNS_12basic_stringIcNS_11char_traitsIcEENS_9allocatorIcEEEEEEE10pointer_toB7v160006ERSA_, symObjAddr: 0x1C228, symBinAddr: 0x10001D910, symSize: 0x14 }
  - { offsetInCU: 0x3C50A, offset: 0x3C50A, size: 0x8, addend: 0x0, symName: __ZNKSt3__112__hash_tableINS_17__hash_value_typeINS_12basic_stringIcNS_11char_traitsIcEENS_9allocatorIcEEEE3PSKEENS_22__unordered_map_hasherIS7_S9_NS_4hashIS7_EENS_8equal_toIS7_EELb1EEENS_21__unordered_map_equalIS7_S9_SE_SC_Lb1EEENS5_IS9_EEE4findIS7_EENS_21__hash_const_iteratorIPNS_11__hash_nodeIS9_PvEEEERKT_, symObjAddr: 0x1C23C, symBinAddr: 0x10001D924, symSize: 0x1BC }
  - { offsetInCU: 0x3C594, offset: 0x3C594, size: 0x8, addend: 0x0, symName: __ZNSt3__125__hash_map_const_iteratorINS_21__hash_const_iteratorIPNS_11__hash_nodeINS_17__hash_value_typeINS_12basic_stringIcNS_11char_traitsIcEENS_9allocatorIcEEEE3PSKEEPvEEEEEC1B7v160006ESF_, symObjAddr: 0x1C3F8, symBinAddr: 0x10001DAE0, symSize: 0x34 }
  - { offsetInCU: 0x3C5CD, offset: 0x3C5CD, size: 0x8, addend: 0x0, symName: __ZNKSt3__112__hash_tableINS_17__hash_value_typeINS_12basic_stringIcNS_11char_traitsIcEENS_9allocatorIcEEEE3PSKEENS_22__unordered_map_hasherIS7_S9_NS_4hashIS7_EENS_8equal_toIS7_EELb1EEENS_21__unordered_map_equalIS7_S9_SE_SC_Lb1EEENS5_IS9_EEE13hash_functionB7v160006Ev, symObjAddr: 0x1C42C, symBinAddr: 0x10001DB14, symSize: 0x28 }
  - { offsetInCU: 0x3C5F3, offset: 0x3C5F3, size: 0x8, addend: 0x0, symName: __ZNKSt3__112__hash_tableINS_17__hash_value_typeINS_12basic_stringIcNS_11char_traitsIcEENS_9allocatorIcEEEE3PSKEENS_22__unordered_map_hasherIS7_S9_NS_4hashIS7_EENS_8equal_toIS7_EELb1EEENS_21__unordered_map_equalIS7_S9_SE_SC_Lb1EEENS5_IS9_EEE6key_eqB7v160006Ev, symObjAddr: 0x1C454, symBinAddr: 0x10001DB3C, symSize: 0x28 }
  - { offsetInCU: 0x3C619, offset: 0x3C619, size: 0x8, addend: 0x0, symName: __ZNSt3__121__hash_const_iteratorIPNS_11__hash_nodeINS_17__hash_value_typeINS_12basic_stringIcNS_11char_traitsIcEENS_9allocatorIcEEEE3PSKEEPvEEEC1B7v160006EPNS_16__hash_node_baseISD_EEPKv, symObjAddr: 0x1C47C, symBinAddr: 0x10001DB64, symSize: 0x3C }
  - { offsetInCU: 0x3C661, offset: 0x3C661, size: 0x8, addend: 0x0, symName: __ZNKSt3__112__hash_tableINS_17__hash_value_typeINS_12basic_stringIcNS_11char_traitsIcEENS_9allocatorIcEEEE3PSKEENS_22__unordered_map_hasherIS7_S9_NS_4hashIS7_EENS_8equal_toIS7_EELb1EEENS_21__unordered_map_equalIS7_S9_SE_SC_Lb1EEENS5_IS9_EEE3endEv, symObjAddr: 0x1C4B8, symBinAddr: 0x10001DBA0, symSize: 0x30 }
  - { offsetInCU: 0x3C689, offset: 0x3C689, size: 0x8, addend: 0x0, symName: __ZNKSt3__117__compressed_pairImNS_22__unordered_map_hasherINS_12basic_stringIcNS_11char_traitsIcEENS_9allocatorIcEEEENS_17__hash_value_typeIS7_3PSKEENS_4hashIS7_EENS_8equal_toIS7_EELb1EEEE6secondB7v160006Ev, symObjAddr: 0x1C4E8, symBinAddr: 0x10001DBD0, symSize: 0x24 }
  - { offsetInCU: 0x3C6AF, offset: 0x3C6AF, size: 0x8, addend: 0x0, symName: __ZNKSt3__122__compressed_pair_elemINS_22__unordered_map_hasherINS_12basic_stringIcNS_11char_traitsIcEENS_9allocatorIcEEEENS_17__hash_value_typeIS7_3PSKEENS_4hashIS7_EENS_8equal_toIS7_EELb1EEELi1ELb1EE5__getB7v160006Ev, symObjAddr: 0x1C50C, symBinAddr: 0x10001DBF4, symSize: 0x14 }
  - { offsetInCU: 0x3C6D5, offset: 0x3C6D5, size: 0x8, addend: 0x0, symName: __ZNKSt3__117__compressed_pairIfNS_21__unordered_map_equalINS_12basic_stringIcNS_11char_traitsIcEENS_9allocatorIcEEEENS_17__hash_value_typeIS7_3PSKEENS_8equal_toIS7_EENS_4hashIS7_EELb1EEEE6secondB7v160006Ev, symObjAddr: 0x1C520, symBinAddr: 0x10001DC08, symSize: 0x24 }
  - { offsetInCU: 0x3C6FB, offset: 0x3C6FB, size: 0x8, addend: 0x0, symName: __ZNKSt3__122__compressed_pair_elemINS_21__unordered_map_equalINS_12basic_stringIcNS_11char_traitsIcEENS_9allocatorIcEEEENS_17__hash_value_typeIS7_3PSKEENS_8equal_toIS7_EENS_4hashIS7_EELb1EEELi1ELb1EE5__getB7v160006Ev, symObjAddr: 0x1C544, symBinAddr: 0x10001DC2C, symSize: 0x14 }
  - { offsetInCU: 0x3C721, offset: 0x3C721, size: 0x8, addend: 0x0, symName: __ZNSt3__121__hash_const_iteratorIPNS_11__hash_nodeINS_17__hash_value_typeINS_12basic_stringIcNS_11char_traitsIcEENS_9allocatorIcEEEE3PSKEEPvEEEC2B7v160006EPNS_16__hash_node_baseISD_EEPKv, symObjAddr: 0x1C558, symBinAddr: 0x10001DC40, symSize: 0x24 }
  - { offsetInCU: 0x3C769, offset: 0x3C769, size: 0x8, addend: 0x0, symName: __ZNSt3__125__hash_map_const_iteratorINS_21__hash_const_iteratorIPNS_11__hash_nodeINS_17__hash_value_typeINS_12basic_stringIcNS_11char_traitsIcEENS_9allocatorIcEEEE3PSKEEPvEEEEEC2B7v160006ESF_, symObjAddr: 0x1C57C, symBinAddr: 0x10001DC64, symSize: 0x20 }
  - { offsetInCU: 0x3C7A2, offset: 0x3C7A2, size: 0x8, addend: 0x0, symName: __ZNSt3__114pointer_traitsIPKNS_4pairIKNS_12basic_stringIcNS_11char_traitsIcEENS_9allocatorIcEEEE3PSKEEE10pointer_toB7v160006ERSB_, symObjAddr: 0x1C600, symBinAddr: 0x10001DCE8, symSize: 0x14 }
  - { offsetInCU: 0x3C7C5, offset: 0x3C7C5, size: 0x8, addend: 0x0, symName: __ZNKSt3__121__hash_const_iteratorIPNS_11__hash_nodeINS_17__hash_value_typeINS_12basic_stringIcNS_11char_traitsIcEENS_9allocatorIcEEEE3PSKEEPvEEEptB7v160006Ev, symObjAddr: 0x1C614, symBinAddr: 0x10001DCFC, symSize: 0x30 }
  - { offsetInCU: 0x3C7EB, offset: 0x3C7EB, size: 0x8, addend: 0x0, symName: __ZNSt3__114pointer_traitsIPKNS_17__hash_value_typeINS_12basic_stringIcNS_11char_traitsIcEENS_9allocatorIcEEEE3PSKEEE10pointer_toB7v160006ERSA_, symObjAddr: 0x1C644, symBinAddr: 0x10001DD2C, symSize: 0x14 }
  - { offsetInCU: 0x3C80E, offset: 0x3C80E, size: 0x8, addend: 0x0, symName: __ZNKSt3__16__treeINS_12__value_typeINS_12basic_stringIcNS_11char_traitsIcEENS_9allocatorIcEEEE9JSONValueEENS_19__map_value_compareIS7_S9_NS_4lessIS7_EELb1EEENS5_IS9_EEE12__find_equalB7v160006IS7_EERPNS_16__tree_node_baseIPvEERPNS_15__tree_end_nodeISK_EERKT_, symObjAddr: 0x1C658, symBinAddr: 0x10001DD40, symSize: 0x34 }
  - { offsetInCU: 0x3C85B, offset: 0x3C85B, size: 0x8, addend: 0x0, symName: __ZN18PSObjectCollection7addItemI15PSSceneEnvelopeEEPT_S3_, symObjAddr: 0x1C68C, symBinAddr: 0x10001DD74, symSize: 0x70 }
  - { offsetInCU: 0x3C8B4, offset: 0x3C8B4, size: 0x8, addend: 0x0, symName: __ZN15PSSceneEnvelopeC1ERK3PSKRKNSt3__112basic_stringIcNS3_11char_traitsIcEENS3_9allocatorIcEEEE, symObjAddr: 0x1C6FC, symBinAddr: 0x10001DDE4, symSize: 0x3C }
  - { offsetInCU: 0x3C8FA, offset: 0x3C8FA, size: 0x8, addend: 0x0, symName: __ZN15PSSceneEnvelopeC2ERK3PSKRKNSt3__112basic_stringIcNS3_11char_traitsIcEENS3_9allocatorIcEEEE, symObjAddr: 0x1C738, symBinAddr: 0x10001DE20, symSize: 0x19C }
  - { offsetInCU: 0x3C940, offset: 0x3C940, size: 0x8, addend: 0x0, symName: __ZN7PSSceneC2ERK3PSKRKNSt3__112basic_stringIcNS3_11char_traitsIcEENS3_9allocatorIcEEEE, symObjAddr: 0x1C8D4, symBinAddr: 0x10001DFBC, symSize: 0xBC }
  - { offsetInCU: 0x3C986, offset: 0x3C986, size: 0x8, addend: 0x0, symName: __ZN7PSSceneD2Ev, symObjAddr: 0x1C990, symBinAddr: 0x10001E078, symSize: 0x84 }
  - { offsetInCU: 0x3C9B0, offset: 0x3C9B0, size: 0x8, addend: 0x0, symName: __ZN15PSSceneEnvelopeD1Ev, symObjAddr: 0x1CA14, symBinAddr: 0x10001E0FC, symSize: 0x2C }
  - { offsetInCU: 0x3C9DA, offset: 0x3C9DA, size: 0x8, addend: 0x0, symName: __ZN15PSSceneEnvelopeD0Ev, symObjAddr: 0x1CA40, symBinAddr: 0x10001E128, symSize: 0x30 }
  - { offsetInCU: 0x3CA04, offset: 0x3CA04, size: 0x8, addend: 0x0, symName: __ZN7PSScene13onRenderSceneEv, symObjAddr: 0x1CA70, symBinAddr: 0x10001E158, symSize: 0x60 }
  - { offsetInCU: 0x3CA2A, offset: 0x3CA2A, size: 0x8, addend: 0x0, symName: __ZN15PSSceneEnvelope11drawModulesEv, symObjAddr: 0x1CAD0, symBinAddr: 0x10001E1B8, symSize: 0x1CC }
  - { offsetInCU: 0x3CAB5, offset: 0x3CAB5, size: 0x8, addend: 0x0, symName: __ZN7PSScene12clearDisplayEv, symObjAddr: 0x1CC9C, symBinAddr: 0x10001E384, symSize: 0x28 }
  - { offsetInCU: 0x3CADB, offset: 0x3CADB, size: 0x8, addend: 0x0, symName: __ZN7PSScene9drawTitleEv, symObjAddr: 0x1CCC4, symBinAddr: 0x10001E3AC, symSize: 0x3C }
  - { offsetInCU: 0x3CB01, offset: 0x3CB01, size: 0x8, addend: 0x0, symName: __ZN7PSScene10drawBorderEv, symObjAddr: 0x1CD00, symBinAddr: 0x10001E3E8, symSize: 0x28 }
  - { offsetInCU: 0x3CB27, offset: 0x3CB27, size: 0x8, addend: 0x0, symName: __ZN7PSSceneD1Ev, symObjAddr: 0x1CD28, symBinAddr: 0x10001E410, symSize: 0x2C }
  - { offsetInCU: 0x3CB51, offset: 0x3CB51, size: 0x8, addend: 0x0, symName: __ZN7PSSceneD0Ev, symObjAddr: 0x1CD54, symBinAddr: 0x10001E43C, symSize: 0x30 }
  - { offsetInCU: 0x3CB7B, offset: 0x3CB7B, size: 0x8, addend: 0x0, symName: __ZN7PSScene11drawModulesEv, symObjAddr: 0x1CD84, symBinAddr: 0x10001E46C, symSize: 0x214 }
  - { offsetInCU: 0x3CC6D, offset: 0x3CC6D, size: 0x8, addend: 0x0, symName: __ZN15PSSceneEnvelopeD2Ev, symObjAddr: 0x1CF98, symBinAddr: 0x10001E680, symSize: 0x2C }
  - { offsetInCU: 0x3CC97, offset: 0x3CC97, size: 0x8, addend: 0x0, symName: __ZN11PSMEnvelope9getAttackEv, symObjAddr: 0x1CFC4, symBinAddr: 0x10001E6AC, symSize: 0x28 }
  - { offsetInCU: 0x3CCBD, offset: 0x3CCBD, size: 0x8, addend: 0x0, symName: __ZN11PSMEnvelope7getHoldEv, symObjAddr: 0x1CFEC, symBinAddr: 0x10001E6D4, symSize: 0x28 }
  - { offsetInCU: 0x3CCE3, offset: 0x3CCE3, size: 0x8, addend: 0x0, symName: __ZN11PSMEnvelope8getDecayEv, symObjAddr: 0x1D014, symBinAddr: 0x10001E6FC, symSize: 0x28 }
  - { offsetInCU: 0x3CD09, offset: 0x3CD09, size: 0x8, addend: 0x0, symName: __ZN11PSMEnvelope10getSustainEv, symObjAddr: 0x1D03C, symBinAddr: 0x10001E724, symSize: 0x28 }
  - { offsetInCU: 0x3CD2F, offset: 0x3CD2F, size: 0x8, addend: 0x0, symName: __ZN11PSMEnvelope10getReleaseEv, symObjAddr: 0x1D064, symBinAddr: 0x10001E74C, symSize: 0x28 }
  - { offsetInCU: 0x3CD55, offset: 0x3CD55, size: 0x8, addend: 0x0, symName: __ZN19PSControllerManager14isShiftPressedEv, symObjAddr: 0x1D08C, symBinAddr: 0x10001E774, symSize: 0x40 }
  - { offsetInCU: 0x3CD7B, offset: 0x3CD7B, size: 0x8, addend: 0x0, symName: __ZN19PSControllerManager6buttonERK3PSK, symObjAddr: 0x1D0CC, symBinAddr: 0x10001E7B4, symSize: 0x2C }
  - { offsetInCU: 0x3CDAF, offset: 0x3CDAF, size: 0x8, addend: 0x0, symName: __ZN12PSController8getValueEv, symObjAddr: 0x1D0F8, symBinAddr: 0x10001E7E0, symSize: 0x18 }
...
